Archive member included because of file (symbol)

..\..\..\..\..\..\..\..\shiro019_accelerometer_spi.X\dist\default\production\shiro019_accelerometer_spi.X.a(accel_define.o)
                              build/pic32mx_sk/production/_ext/351744058/system_init.o (delay)
..\..\..\..\..\..\..\..\shiro019_accelerometer_spi.X\dist\default\production\shiro019_accelerometer_spi.X.a(accel_read_x.o)
                              build/pic32mx_sk/production/_ext/1360937237/app.o (accel_read_x)
..\..\..\..\..\..\..\..\shiro019_accelerometer_spi.X\dist\default\production\shiro019_accelerometer_spi.X.a(accel_read_y.o)
                              build/pic32mx_sk/production/_ext/1360937237/app.o (accel_read_y)
..\..\..\..\..\..\..\..\shiro019_accelerometer_spi.X\dist\default\production\shiro019_accelerometer_spi.X.a(accel_setup.o)
                              build/pic32mx_sk/production/_ext/1360937237/app.o (accel_setup)
..\..\..\..\..\..\..\..\shiro019_accelerometer_spi.X\dist\default\production\shiro019_accelerometer_spi.X.a(spi2_read_register.o)
                              build/pic32mx_sk/production/_ext/1360937237/app2.o (spi2_read_register)
..\..\..\..\..\..\..\..\shiro019_accelerometer_spi.X\dist\default\production\shiro019_accelerometer_spi.X.a(spi2_setup.o)
                              build/pic32mx_sk/production/_ext/1360937237/app.o (spi2_setup)
..\..\..\..\..\..\..\..\shiro019_accelerometer_spi.X\dist\default\production\shiro019_accelerometer_spi.X.a(spi2_write_register.o)
                              ..\..\..\..\..\..\..\..\shiro019_accelerometer_spi.X\dist\default\production\shiro019_accelerometer_spi.X.a(accel_setup.o) (spi2_write_register)

Optional file libmchp_peripheral.a not found

Optional file libmchp_peripheral_32MX470F512L.a not found
c:/program files (x86)/microchip/xc32/v2.30/bin/bin/../../lib/gcc/pic32mx/4.8.3/../../../../pic32mx/lib\libpic32.a(memcpy.o)
                              build/pic32mx_sk/production/_ext/161854096/queue.o (memcpy)
c:/program files (x86)/microchip/xc32/v2.30/bin/bin/../../lib/gcc/pic32mx/4.8.3/../../../../pic32mx/lib\libpic32.a(memset.o)
                              build/pic32mx_sk/production/_ext/161854096/tasks.o (memset)
c:/program files (x86)/microchip/xc32/v2.30/bin/bin/../../lib/gcc/pic32mx/4.8.3/../../../../pic32mx/lib\libpic32.a(default-bootstrap-exception-handler.o)
                              C:\Users\shiro019\AppData\Local\Temp\ccoS15Bg.o (_bootstrap_exception_handler)
c:/program files (x86)/microchip/xc32/v2.30/bin/bin/../../lib/gcc/pic32mx/4.8.3/../../../../pic32mx/lib\libpic32.a(default-on-reset.o)
                              C:\Users\shiro019\AppData\Local\Temp\ccoS15Bg.o (_on_reset)
c:/program files (x86)/microchip/xc32/v2.30/bin/bin/../../lib/gcc/pic32mx/4.8.3/../../../../pic32mx/lib\libpic32.a(default-on-bootstrap.o)
                              C:\Users\shiro019\AppData\Local\Temp\ccoS15Bg.o (_on_bootstrap)
c:/program files (x86)/microchip/xc32/v2.30/bin/bin/../../lib/gcc/pic32mx/4.8.3/../../../../pic32mx/lib\libpic32.a(default-nmi-handler.o)
                              C:\Users\shiro019\AppData\Local\Temp\ccoS15Bg.o (_nmi_handler)
c:/program files (x86)/microchip/xc32/v2.30/bin/bin/../../lib/gcc/pic32mx/4.8.3/../../../../pic32mx/lib\libpic32.a(xc32_uart.o)
                              build/pic32mx_sk/production/_ext/1360937237/app2.o (__XC_UART)
c:/program files (x86)/microchip/xc32/v2.30/bin/bin/../../lib/gcc/pic32mx/4.8.3/../../../../pic32mx/lib\libpic32.a(pic32_data_init.o)
                              C:\Users\shiro019\AppData\Local\Temp\ccoS15Bg.o (__pic32_data_init)
c:/program files (x86)/microchip/xc32/v2.30/bin/bin/../../lib/gcc/pic32mx/4.8.3/../../../../pic32mx/lib\libpic32.a(general-exception.o)
                              C:\Users\shiro019\AppData\Local\Temp\ccoS15Bg.o (_general_exception_context)
c:/program files (x86)/microchip/xc32/v2.30/bin/bin/../../lib/gcc/pic32mx/4.8.3/../../../../pic32mx/lib\libpic32.a(vector0.o)
                              C:\Users\shiro019\AppData\Local\Temp\ccgo7Q8F.o (__vector_dispatch_0)
c:/program files (x86)/microchip/xc32/v2.30/bin/bin/../../lib/gcc/pic32mx/4.8.3/../../../../pic32mx/lib\libpic32.a(vector2.o)
                              C:\Users\shiro019\AppData\Local\Temp\ccgo7Q8F.o (__vector_dispatch_2)
c:/program files (x86)/microchip/xc32/v2.30/bin/bin/../../lib/gcc/pic32mx/4.8.3/../../../../pic32mx/lib\libpic32.a(vector3.o)
                              C:\Users\shiro019\AppData\Local\Temp\ccgo7Q8F.o (__vector_dispatch_3)
c:/program files (x86)/microchip/xc32/v2.30/bin/bin/../../lib/gcc/pic32mx/4.8.3/../../../../pic32mx/lib\libpic32.a(vector5.o)
                              C:\Users\shiro019\AppData\Local\Temp\ccgo7Q8F.o (__vector_dispatch_5)
c:/program files (x86)/microchip/xc32/v2.30/bin/bin/../../lib/gcc/pic32mx/4.8.3/../../../../pic32mx/lib\libpic32.a(vector6.o)
                              C:\Users\shiro019\AppData\Local\Temp\ccgo7Q8F.o (__vector_dispatch_6)
c:/program files (x86)/microchip/xc32/v2.30/bin/bin/../../lib/gcc/pic32mx/4.8.3/../../../../pic32mx/lib\libpic32.a(vector7.o)
                              C:\Users\shiro019\AppData\Local\Temp\ccgo7Q8F.o (__vector_dispatch_7)
c:/program files (x86)/microchip/xc32/v2.30/bin/bin/../../lib/gcc/pic32mx/4.8.3/../../../../pic32mx/lib\libpic32.a(vector8.o)
                              C:\Users\shiro019\AppData\Local\Temp\ccgo7Q8F.o (__vector_dispatch_8)
c:/program files (x86)/microchip/xc32/v2.30/bin/bin/../../lib/gcc/pic32mx/4.8.3/../../../../pic32mx/lib\libpic32.a(vector9.o)
                              C:\Users\shiro019\AppData\Local\Temp\ccgo7Q8F.o (__vector_dispatch_9)
c:/program files (x86)/microchip/xc32/v2.30/bin/bin/../../lib/gcc/pic32mx/4.8.3/../../../../pic32mx/lib\libpic32.a(vector10.o)
                              C:\Users\shiro019\AppData\Local\Temp\ccgo7Q8F.o (__vector_dispatch_10)
c:/program files (x86)/microchip/xc32/v2.30/bin/bin/../../lib/gcc/pic32mx/4.8.3/../../../../pic32mx/lib\libpic32.a(vector11.o)
                              C:\Users\shiro019\AppData\Local\Temp\ccgo7Q8F.o (__vector_dispatch_11)
c:/program files (x86)/microchip/xc32/v2.30/bin/bin/../../lib/gcc/pic32mx/4.8.3/../../../../pic32mx/lib\libpic32.a(vector12.o)
                              C:\Users\shiro019\AppData\Local\Temp\ccgo7Q8F.o (__vector_dispatch_12)
c:/program files (x86)/microchip/xc32/v2.30/bin/bin/../../lib/gcc/pic32mx/4.8.3/../../../../pic32mx/lib\libpic32.a(vector13.o)
                              C:\Users\shiro019\AppData\Local\Temp\ccgo7Q8F.o (__vector_dispatch_13)
c:/program files (x86)/microchip/xc32/v2.30/bin/bin/../../lib/gcc/pic32mx/4.8.3/../../../../pic32mx/lib\libpic32.a(vector14.o)
                              C:\Users\shiro019\AppData\Local\Temp\ccgo7Q8F.o (__vector_dispatch_14)
c:/program files (x86)/microchip/xc32/v2.30/bin/bin/../../lib/gcc/pic32mx/4.8.3/../../../../pic32mx/lib\libpic32.a(vector15.o)
                              C:\Users\shiro019\AppData\Local\Temp\ccgo7Q8F.o (__vector_dispatch_15)
c:/program files (x86)/microchip/xc32/v2.30/bin/bin/../../lib/gcc/pic32mx/4.8.3/../../../../pic32mx/lib\libpic32.a(vector16.o)
                              C:\Users\shiro019\AppData\Local\Temp\ccgo7Q8F.o (__vector_dispatch_16)
c:/program files (x86)/microchip/xc32/v2.30/bin/bin/../../lib/gcc/pic32mx/4.8.3/../../../../pic32mx/lib\libpic32.a(vector17.o)
                              C:\Users\shiro019\AppData\Local\Temp\ccgo7Q8F.o (__vector_dispatch_17)
c:/program files (x86)/microchip/xc32/v2.30/bin/bin/../../lib/gcc/pic32mx/4.8.3/../../../../pic32mx/lib\libpic32.a(vector18.o)
                              C:\Users\shiro019\AppData\Local\Temp\ccgo7Q8F.o (__vector_dispatch_18)
c:/program files (x86)/microchip/xc32/v2.30/bin/bin/../../lib/gcc/pic32mx/4.8.3/../../../../pic32mx/lib\libpic32.a(vector19.o)
                              C:\Users\shiro019\AppData\Local\Temp\ccgo7Q8F.o (__vector_dispatch_19)
c:/program files (x86)/microchip/xc32/v2.30/bin/bin/../../lib/gcc/pic32mx/4.8.3/../../../../pic32mx/lib\libpic32.a(vector20.o)
                              C:\Users\shiro019\AppData\Local\Temp\ccgo7Q8F.o (__vector_dispatch_20)
c:/program files (x86)/microchip/xc32/v2.30/bin/bin/../../lib/gcc/pic32mx/4.8.3/../../../../pic32mx/lib\libpic32.a(vector21.o)
                              C:\Users\shiro019\AppData\Local\Temp\ccgo7Q8F.o (__vector_dispatch_21)
c:/program files (x86)/microchip/xc32/v2.30/bin/bin/../../lib/gcc/pic32mx/4.8.3/../../../../pic32mx/lib\libpic32.a(vector22.o)
                              C:\Users\shiro019\AppData\Local\Temp\ccgo7Q8F.o (__vector_dispatch_22)
c:/program files (x86)/microchip/xc32/v2.30/bin/bin/../../lib/gcc/pic32mx/4.8.3/../../../../pic32mx/lib\libpic32.a(vector23.o)
                              C:\Users\shiro019\AppData\Local\Temp\ccgo7Q8F.o (__vector_dispatch_23)
c:/program files (x86)/microchip/xc32/v2.30/bin/bin/../../lib/gcc/pic32mx/4.8.3/../../../../pic32mx/lib\libpic32.a(vector24.o)
                              C:\Users\shiro019\AppData\Local\Temp\ccgo7Q8F.o (__vector_dispatch_24)
c:/program files (x86)/microchip/xc32/v2.30/bin/bin/../../lib/gcc/pic32mx/4.8.3/../../../../pic32mx/lib\libpic32.a(vector25.o)
                              C:\Users\shiro019\AppData\Local\Temp\ccgo7Q8F.o (__vector_dispatch_25)
c:/program files (x86)/microchip/xc32/v2.30/bin/bin/../../lib/gcc/pic32mx/4.8.3/../../../../pic32mx/lib\libpic32.a(vector26.o)
                              C:\Users\shiro019\AppData\Local\Temp\ccgo7Q8F.o (__vector_dispatch_26)
c:/program files (x86)/microchip/xc32/v2.30/bin/bin/../../lib/gcc/pic32mx/4.8.3/../../../../pic32mx/lib\libpic32.a(vector27.o)
                              C:\Users\shiro019\AppData\Local\Temp\ccgo7Q8F.o (__vector_dispatch_27)
c:/program files (x86)/microchip/xc32/v2.30/bin/bin/../../lib/gcc/pic32mx/4.8.3/../../../../pic32mx/lib\libpic32.a(vector28.o)
                              C:\Users\shiro019\AppData\Local\Temp\ccgo7Q8F.o (__vector_dispatch_28)
c:/program files (x86)/microchip/xc32/v2.30/bin/bin/../../lib/gcc/pic32mx/4.8.3/../../../../pic32mx/lib\libpic32.a(vector29.o)
                              C:\Users\shiro019\AppData\Local\Temp\ccgo7Q8F.o (__vector_dispatch_29)
c:/program files (x86)/microchip/xc32/v2.30/bin/bin/../../lib/gcc/pic32mx/4.8.3/../../../../pic32mx/lib\libpic32.a(vector30.o)
                              C:\Users\shiro019\AppData\Local\Temp\ccgo7Q8F.o (__vector_dispatch_30)
c:/program files (x86)/microchip/xc32/v2.30/bin/bin/../../lib/gcc/pic32mx/4.8.3/../../../../pic32mx/lib\libpic32.a(vector31.o)
                              C:\Users\shiro019\AppData\Local\Temp\ccgo7Q8F.o (__vector_dispatch_31)
c:/program files (x86)/microchip/xc32/v2.30/bin/bin/../../lib/gcc/pic32mx/4.8.3/../../../../pic32mx/lib\libpic32.a(vector32.o)
                              C:\Users\shiro019\AppData\Local\Temp\ccgo7Q8F.o (__vector_dispatch_32)
c:/program files (x86)/microchip/xc32/v2.30/bin/bin/../../lib/gcc/pic32mx/4.8.3/../../../../pic32mx/lib\libpic32.a(vector33.o)
                              C:\Users\shiro019\AppData\Local\Temp\ccgo7Q8F.o (__vector_dispatch_33)
c:/program files (x86)/microchip/xc32/v2.30/bin/bin/../../lib/gcc/pic32mx/4.8.3/../../../../pic32mx/lib\libpic32.a(vector34.o)
                              C:\Users\shiro019\AppData\Local\Temp\ccgo7Q8F.o (__vector_dispatch_34)
c:/program files (x86)/microchip/xc32/v2.30/bin/bin/../../lib/gcc/pic32mx/4.8.3/../../../../pic32mx/lib\libpic32.a(vector35.o)
                              C:\Users\shiro019\AppData\Local\Temp\ccgo7Q8F.o (__vector_dispatch_35)
c:/program files (x86)/microchip/xc32/v2.30/bin/bin/../../lib/gcc/pic32mx/4.8.3/../../../../pic32mx/lib\libpic32.a(vector36.o)
                              C:\Users\shiro019\AppData\Local\Temp\ccgo7Q8F.o (__vector_dispatch_36)
c:/program files (x86)/microchip/xc32/v2.30/bin/bin/../../lib/gcc/pic32mx/4.8.3/../../../../pic32mx/lib\libpic32.a(vector37.o)
                              C:\Users\shiro019\AppData\Local\Temp\ccgo7Q8F.o (__vector_dispatch_37)
c:/program files (x86)/microchip/xc32/v2.30/bin/bin/../../lib/gcc/pic32mx/4.8.3/../../../../pic32mx/lib\libpic32.a(vector38.o)
                              C:\Users\shiro019\AppData\Local\Temp\ccgo7Q8F.o (__vector_dispatch_38)
c:/program files (x86)/microchip/xc32/v2.30/bin/bin/../../lib/gcc/pic32mx/4.8.3/../../../../pic32mx/lib\libpic32.a(vector39.o)
                              C:\Users\shiro019\AppData\Local\Temp\ccgo7Q8F.o (__vector_dispatch_39)
c:/program files (x86)/microchip/xc32/v2.30/bin/bin/../../lib/gcc/pic32mx/4.8.3/../../../../pic32mx/lib\libpic32.a(vector40.o)
                              C:\Users\shiro019\AppData\Local\Temp\ccgo7Q8F.o (__vector_dispatch_40)
c:/program files (x86)/microchip/xc32/v2.30/bin/bin/../../lib/gcc/pic32mx/4.8.3/../../../../pic32mx/lib\libpic32.a(vector41.o)
                              C:\Users\shiro019\AppData\Local\Temp\ccgo7Q8F.o (__vector_dispatch_41)
c:/program files (x86)/microchip/xc32/v2.30/bin/bin/../../lib/gcc/pic32mx/4.8.3/../../../../pic32mx/lib\libpic32.a(vector42.o)
                              C:\Users\shiro019\AppData\Local\Temp\ccgo7Q8F.o (__vector_dispatch_42)
c:/program files (x86)/microchip/xc32/v2.30/bin/bin/../../lib/gcc/pic32mx/4.8.3/../../../../pic32mx/lib\libpic32.a(vector43.o)
                              C:\Users\shiro019\AppData\Local\Temp\ccgo7Q8F.o (__vector_dispatch_43)
c:/program files (x86)/microchip/xc32/v2.30/bin/bin/../../lib/gcc/pic32mx/4.8.3/../../../../pic32mx/lib\libpic32.a(vector44.o)
                              C:\Users\shiro019\AppData\Local\Temp\ccgo7Q8F.o (__vector_dispatch_44)
c:/program files (x86)/microchip/xc32/v2.30/bin/bin/../../lib/gcc/pic32mx/4.8.3/../../../../pic32mx/lib\libpic32.a(vector45.o)
                              C:\Users\shiro019\AppData\Local\Temp\ccgo7Q8F.o (__vector_dispatch_45)
c:/program files (x86)/microchip/xc32/v2.30/bin/bin/../../lib/gcc/pic32mx/4.8.3/../../../../pic32mx/lib\libpic32.a(defaultinterrupt.o)
                              c:/program files (x86)/microchip/xc32/v2.30/bin/bin/../../lib/gcc/pic32mx/4.8.3/../../../../pic32mx/lib\libpic32.a(vector0.o) (_DefaultInterrupt)
c:/program files (x86)/microchip/xc32/v2.30/bin/bin/../../lib/gcc/pic32mx/4.8.3/../../../../pic32mx/lib\libc.a(putchar.o)
                              build/pic32mx_sk/production/_ext/1360937237/app1.o (putchar)
c:/program files (x86)/microchip/xc32/v2.30/bin/bin/../../lib/gcc/pic32mx/4.8.3/../../../../pic32mx/lib\libc.a(printf_fF.eo)
                              build/pic32mx_sk/production/_ext/1360937237/app1.o (_printf_fF)
c:/program files (x86)/microchip/xc32/v2.30/bin/bin/../../lib/gcc/pic32mx/4.8.3/../../../../pic32mx/lib\libc.a(printf_s.eo)
                              build/pic32mx_sk/production/_ext/351744058/system_init.o (_printf_0)
c:/program files (x86)/microchip/xc32/v2.30/bin/bin/../../lib/gcc/pic32mx/4.8.3/../../../../pic32mx/lib\libc.a(_iob.o)
                              c:/program files (x86)/microchip/xc32/v2.30/bin/bin/../../lib/gcc/pic32mx/4.8.3/../../../../pic32mx/lib\libc.a(putchar.o) (_iob)
c:/program files (x86)/microchip/xc32/v2.30/bin/bin/../../lib/gcc/pic32mx/4.8.3/../../../../pic32mx/lib\libc.a(_fputc_simple.o)
                              c:/program files (x86)/microchip/xc32/v2.30/bin/bin/../../lib/gcc/pic32mx/4.8.3/../../../../pic32mx/lib\libc.a(putchar.o) (fputc)
c:/program files (x86)/microchip/xc32/v2.30/bin/bin/../../lib/gcc/pic32mx/4.8.3/../../../../pic32mx/lib\libc.a(doprnt_fF.eo)
                              c:/program files (x86)/microchip/xc32/v2.30/bin/bin/../../lib/gcc/pic32mx/4.8.3/../../../../pic32mx/lib\libc.a(printf_fF.eo) (_vfprintf_fF)
c:/program files (x86)/microchip/xc32/v2.30/bin/bin/../../lib/gcc/pic32mx/4.8.3/../../../../pic32mx/lib\libc.a(doprnt_s.eo)
                              c:/program files (x86)/microchip/xc32/v2.30/bin/bin/../../lib/gcc/pic32mx/4.8.3/../../../../pic32mx/lib\libc.a(printf_s.eo) (_vfprintf_s)
c:/program files (x86)/microchip/xc32/v2.30/bin/bin/../../lib/gcc/pic32mx/4.8.3/../../../../pic32mx/lib\libc.a(_flsbuf_simple.o)
                              c:/program files (x86)/microchip/xc32/v2.30/bin/bin/../../lib/gcc/pic32mx/4.8.3/../../../../pic32mx/lib\libc.a(_fputc_simple.o) (_flsbuf)
c:/program files (x86)/microchip/xc32/v2.30/bin/bin/../../lib/gcc/pic32mx/4.8.3/../../../../pic32mx/lib\libc.a(ctype.o)
                              c:/program files (x86)/microchip/xc32/v2.30/bin/bin/../../lib/gcc/pic32mx/4.8.3/../../../../pic32mx/lib\libc.a(doprnt_fF.eo) (_ctype)
c:/program files (x86)/microchip/xc32/v2.30/bin/bin/../../lib/gcc/pic32mx/4.8.3/../../../../pic32mx/lib\libc.a(ldpowers.o)
                              c:/program files (x86)/microchip/xc32/v2.30/bin/bin/../../lib/gcc/pic32mx/4.8.3/../../../../pic32mx/lib\libc.a(doprnt_fF.eo) (_npowers_)
c:/program files (x86)/microchip/xc32/v2.30/bin/bin/../../lib/gcc/pic32mx/4.8.3/../../../../pic32mx/lib\libc.a(doprnt_fFs.eo)
                              (_vfprintf_fFs)
c:/program files (x86)/microchip/xc32/v2.30/bin/bin/../../lib/gcc/pic32mx/4.8.3/../../../../pic32mx/lib\libm.a(dpfrexp.o)
                              c:/program files (x86)/microchip/xc32/v2.30/bin/bin/../../lib/gcc/pic32mx/4.8.3/../../../../pic32mx/lib\libc.a(doprnt_fF.eo) (frexpl)
c:/program files (x86)/microchip/xc32/v2.30/bin/bin/../../lib/gcc/pic32mx/4.8.3/../../../../pic32mx/lib\libm.a(dp32div.o)
                              c:/program files (x86)/microchip/xc32/v2.30/bin/bin/../../lib/gcc/pic32mx/4.8.3/../../../../pic32mx/lib\libc.a(doprnt_fF.eo) (dpdiv)
c:/program files (x86)/microchip/xc32/v2.30/bin/bin/../../lib/gcc/pic32mx/4.8.3/../../../../pic32mx/lib\libm.a(dp32mul.o)
                              c:/program files (x86)/microchip/xc32/v2.30/bin/bin/../../lib/gcc/pic32mx/4.8.3/../../../../pic32mx/lib\libc.a(doprnt_fF.eo) (dpmul)
c:/program files (x86)/microchip/xc32/v2.30/bin/bin/../../lib/gcc/pic32mx/4.8.3/../../../../pic32mx/lib\libm.a(dp32subadd.o)
                              c:/program files (x86)/microchip/xc32/v2.30/bin/bin/../../lib/gcc/pic32mx/4.8.3/../../../../pic32mx/lib\libc.a(doprnt_fF.eo) (dpsub)
c:/program files (x86)/microchip/xc32/v2.30/bin/bin/../../lib/gcc/pic32mx/4.8.3/../../../../pic32mx/lib\libm.a(dpcmp.o)
                              c:/program files (x86)/microchip/xc32/v2.30/bin/bin/../../lib/gcc/pic32mx/4.8.3/../../../../pic32mx/lib\libc.a(doprnt_fF.eo) (dpcmp)
c:/program files (x86)/microchip/xc32/v2.30/bin/bin/../../lib/gcc/pic32mx/4.8.3/../../../../pic32mx/lib\libm.a(fp32mul.o)
                              ..\..\..\..\..\..\..\..\shiro019_accelerometer_spi.X\dist\default\production\shiro019_accelerometer_spi.X.a(accel_read_x.o) (fpmul)
c:/program files (x86)/microchip/xc32/v2.30/bin/bin/../../lib/gcc/pic32mx/4.8.3/../../../../pic32mx/lib\libm.a(fpcmp.o)
                              build/pic32mx_sk/production/_ext/1360937237/app1.o (fpcmp)
c:/program files (x86)/microchip/xc32/v2.30/bin/bin/../../lib/gcc/pic32mx/4.8.3/../../../../pic32mx/lib\libm.a(fptodp.o)
                              c:/program files (x86)/microchip/xc32/v2.30/bin/bin/../../lib/gcc/pic32mx/4.8.3/../../../../pic32mx/lib\libc.a(doprnt_fF.eo) (fptodp)
c:/program files (x86)/microchip/xc32/v2.30/bin/bin/../../lib/gcc/pic32mx/4.8.3/../../../../pic32mx/lib\libm.a(sitofp.o)
                              ..\..\..\..\..\..\..\..\shiro019_accelerometer_spi.X\dist\default\production\shiro019_accelerometer_spi.X.a(accel_read_x.o) (sitofp)
c:/program files (x86)/microchip/xc32/v2.30/bin/bin/../../lib/gcc/pic32mx/4.8.3/../../../../pic32mx/lib\libe.a(_fixunsdfdi.o)
                              c:/program files (x86)/microchip/xc32/v2.30/bin/bin/../../lib/gcc/pic32mx/4.8.3/../../../../pic32mx/lib\libc.a(doprnt_fF.eo) (__fixunsdfdi)
c:/program files (x86)/microchip/xc32/v2.30/bin/bin/../../lib/gcc/pic32mx/4.8.3/../../../../pic32mx/lib\libe.a(_orderdf2.o)
                              c:/program files (x86)/microchip/xc32/v2.30/bin/bin/../../lib/gcc/pic32mx/4.8.3/../../../../pic32mx/lib\libe.a(_fixunsdfdi.o) (__orderdf2)
c:/program files (x86)/microchip/xc32/v2.30/bin/bin/../../lib/gcc/pic32mx/4.8.3/../../../../pic32mx/lib\libe.a(_fixdfdi.o)
                              c:/program files (x86)/microchip/xc32/v2.30/bin/bin/../../lib/gcc/pic32mx/4.8.3/../../../../pic32mx/lib\libe.a(_fixunsdfdi.o) (__fixdfdi)
c:/program files (x86)/microchip/xc32/v2.30/bin/bin/../../lib/gcc/pic32mx/4.8.3\libgcc.a(_floatundidf.o)
                              c:/program files (x86)/microchip/xc32/v2.30/bin/bin/../../lib/gcc/pic32mx/4.8.3/../../../../pic32mx/lib\libc.a(doprnt_fF.eo) (__floatundidf)
c:/program files (x86)/microchip/xc32/v2.30/bin/bin/../../lib/gcc/pic32mx/4.8.3\libgcc.a(_udivdi3.o)
                              c:/program files (x86)/microchip/xc32/v2.30/bin/bin/../../lib/gcc/pic32mx/4.8.3/../../../../pic32mx/lib\libc.a(doprnt_fF.eo) (__udivdi3)
c:/program files (x86)/microchip/xc32/v2.30/bin/bin/../../lib/gcc/pic32mx/4.8.3\libgcc.a(_umoddi3.o)
                              c:/program files (x86)/microchip/xc32/v2.30/bin/bin/../../lib/gcc/pic32mx/4.8.3/../../../../pic32mx/lib\libc.a(doprnt_fF.eo) (__umoddi3)
c:/program files (x86)/microchip/xc32/v2.30/bin/bin/../../lib/gcc/pic32mx/4.8.3\libgcc.a(floatunsidf.o)
                              c:/program files (x86)/microchip/xc32/v2.30/bin/bin/../../lib/gcc/pic32mx/4.8.3\libgcc.a(_floatundidf.o) (__floatunsidf)
c:/program files (x86)/microchip/xc32/v2.30/bin/bin/../../lib/gcc/pic32mx/4.8.3/../../../../pic32mx/lib\libpic32.a(write.o)
                              c:/program files (x86)/microchip/xc32/v2.30/bin/bin/../../lib/gcc/pic32mx/4.8.3/../../../../pic32mx/lib\libc.a(_fputc_simple.o) (write)
c:/program files (x86)/microchip/xc32/v2.30/bin/bin/../../lib/gcc/pic32mx/4.8.3/../../../../pic32mx/lib\libpic32.a(_mon_putc.o)
                              c:/program files (x86)/microchip/xc32/v2.30/bin/bin/../../lib/gcc/pic32mx/4.8.3/../../../../pic32mx/lib\libpic32.a(write.o) (_mon_putc)
c:/program files (x86)/microchip/xc32/v2.30/bin/bin/../../lib/gcc/pic32mx/4.8.3/../../../../pic32mx/lib\libm.a(litodp.o)
                              c:/program files (x86)/microchip/xc32/v2.30/bin/bin/../../lib/gcc/pic32mx/4.8.3\libgcc.a(floatunsidf.o) (litodp)

Allocating common symbols
Common symbol       size              file

app3Data            0x4               build/pic32mx_sk/production/_ext/1360937237/app3.o
appData             0x4               build/pic32mx_sk/production/_ext/1360937237/app.o
app1Data            0x4               build/pic32mx_sk/production/_ext/1360937237/app1.o
sysObj              0x0               build/pic32mx_sk/production/_ext/351744058/system_init.o
app2Data            0x4               build/pic32mx_sk/production/_ext/1360937237/app2.o
sysDevconObj        0x8               build/pic32mx_sk/production/_ext/374885412/sys_devcon.o

Microchip PIC32 Memory-Usage Report

kseg0 Program-Memory Usage
section                    address  length [bytes]      (dec)  Description
-------                 ----------  -------------------------  -----------
.text._vfprintf_fFs     0x9d000000         0x11b8        4536   
.text.dp32mul           0x9d0011b8          0x4b8        1208   
.text                   0x9d001670          0x8bc        2236  App's exec code 
.text                   0x9d001f2c          0x454        1108  App's exec code 
.text.dp32subadd        0x9d002380          0x430        1072   
.text.dp32mul           0x9d0027b0          0x32c         812   
.text.xTaskCreate       0x9d002adc          0x2c8         712   
.text.xQueueGenericSend 0x9d002da4          0x268         616   
.text.scale             0x9d00300c          0x23c         572   
.text.xQueueReceive     0x9d003248          0x1f4         500   
.text.io_setup          0x9d00343c          0x1f0         496   
.text.fp32mul           0x9d00362c          0x1bc         444   
.text.xTaskIncrementTic 0x9d0037e8          0x1a0         416   
.text                   0x9d003988          0x168         360  App's exec code 
.text.xTaskResumeAll    0x9d003af0          0x164         356   
.rodata                 0x9d003c54            0x4           4  Read-only const 
.rodata                 0x9d003c58          0x160         352  Read-only const 
.dinit                  0x9d003db8          0x150         336   
.text.fputc             0x9d003f08          0x144         324   
.text.xTaskPriorityDisi 0x9d00404c          0x12c         300   
.text._flsbuf           0x9d004178          0x12c         300   
.text.dpcmp             0x9d0042a4          0x12c         300   
.rodata                 0x9d0043d0          0x128         296  Read-only const 
.text.vTaskSwitchContex 0x9d0044f8          0x11c         284   
.text                   0x9d004614          0x104         260  App's exec code 
.rodata                 0x9d004718          0x104         260  Read-only const 
.text.prvUnlockQueue    0x9d00481c          0x100         256   
.text.prvCopyDataToQueu 0x9d00491c           0xf4         244   
.text.__fixdfdi         0x9d004a10           0xe8         232   
.text.SYS_Tasks         0x9d004af8           0xe4         228   
.text.prvAddCurrentTask 0x9d004bdc           0xe4         228   
.rodata                 0x9d004cc0           0xe0         224  Read-only const 
.text.general_exception 0x9d004da0           0xdc         220   
.text.xQueueGenericRese 0x9d004e7c           0xd8         216   
.text                   0x9d004f54           0xd8         216  App's exec code 
.text.xTaskRemoveFromEv 0x9d00502c           0xd4         212   
.text._mon_putc         0x9d005100           0xd4         212   
.text.xTaskCheckForTime 0x9d0051d4           0xd0         208   
.text.BSP_LEDOff        0x9d0052a4           0xc0         192   
.text                   0x9d005364           0xb8         184  App's exec code 
.text.pvPortMalloc      0x9d00541c           0xb0         176   
.text                   0x9d0054cc          0x160         352  App's exec code 
.text                   0x9d00562c           0xac         172  App's exec code 
.text.fptodp            0x9d0056d8           0xac         172   
.text.xQueueGenericCrea 0x9d005784           0xa8         168   
.text.vTaskStartSchedul 0x9d00582c           0xa8         168   
.text.prvIdleTask       0x9d0058d4           0xa8         168   
.text                   0x9d00597c           0xa8         168  App's exec code 
.text.libm              0x9d005a24           0xa8         168   
.text.fpcmp             0x9d005acc           0x9c         156   
.text.write             0x9d005b68           0x9c         156   
.text.__orderdf2        0x9d005c04           0x8c         140   
.text.APP1_Tasks        0x9d005c90           0x88         136   
.text.APP2_Tasks        0x9d005d18           0x88         136   
.text                   0x9d005da0           0x84         132  App's exec code 
.text.__fixunsdfdi      0x9d005e24           0x80         128   
.text.vTaskEnterCritica 0x9d005ea4           0x7c         124   
.text.litodp            0x9d005f20           0x78         120   
.text.vTaskDelay        0x9d005f98           0x70         112   
.text.vApplicationSetup 0x9d006008           0x6c         108   
.text                   0x9d006074           0x64         100  App's exec code 
.text.SYS_Initialize    0x9d0060d8           0x60          96   
.text.vListInsert       0x9d006138           0x60          96   
.text.vTaskExitCritical 0x9d006198           0x60          96   
.text                   0x9d0061f8           0x60          96  App's exec code 
.text.sitofp            0x9d006258           0x60          96   
.text.uart1_setup       0x9d0062b8           0x5c          92   
.text.xPortStartSchedul 0x9d006314           0x5c          92   
.text.vTaskPlaceOnEvent 0x9d006370           0x5c          92   
.text.APP_Tasks         0x9d0063cc           0x58          88   
.rodata                 0x9d006424           0x58          88  Read-only const 
.text.prvTaskExitError  0x9d00647c           0x58          88   
.text.BSP_LEDToggle     0x9d0064d4           0x54          84   
.text.APP3_Tasks        0x9d006528           0x54          84   
.text.pxPortInitialiseS 0x9d00657c           0x54          84   
.text.vPortIncrementTic 0x9d0065d0           0x54          84   
.text.main_entry        0x9d006624           0x54          84   
.rodata                 0x9d006678           0x50          80  Read-only const 
.text.prvCopyDataFromQu 0x9d0066c8           0x50          80   
.text.uxListRemove      0x9d006718           0x4c          76   
.text._bootstrap_except 0x9d006764           0x48          72   
.vector_default         0x9d0067ac           0x48          72   
.rodata                 0x9d0067f4           0x44          68  Read-only const 
.text                   0x9d006838           0x88         136  App's exec code 
.text._general_exceptio 0x9d0068c0           0x40          64   
.text.vApplicationStack 0x9d006900           0x40          64   
.text.vApplicationMallo 0x9d006940           0x40          64   
.text.vAssertCalled     0x9d006980           0x40          64   
.text._printf_fF        0x9d0069c0           0x40          64   
.text._printf_s         0x9d006a00           0x40          64   
.rodata                 0x9d006a40           0x78         120  Read-only const 
.text.uxPortSetInterrup 0x9d006ab8           0x3c          60   
.rodata                 0x9d006af4           0x3c          60  Read-only const 
.text.BSP_Initialize    0x9d006b30           0x38          56   
.text.APP_Initialize    0x9d006b68           0x38          56   
.text.prvResetNextTaskU 0x9d006ba0           0x38          56   
.text.vListInsertEnd    0x9d006bd8           0x34          52   
.text.prvIsQueueEmpty   0x9d006c0c           0x34          52   
.text.system_reg_unlock 0x9d006c40           0x30          48   
.rodata                 0x9d006c70           0x2c          44  Read-only const 
.text.vPortFree         0x9d006c9c           0x2c          44   
.text.APP2_Initialize   0x9d006cc8           0x28          40   
.text.vListInitialise   0x9d006cf0           0x24          36   
.text._APP3_Tasks       0x9d006d14           0x20          32   
.text.main              0x9d006d34           0x20          32   
.text.putchar           0x9d006d54           0x20          32   
.text.APP1_Initialize   0x9d006d74           0x1c          28   
.text._SYS_Tasks        0x9d006d90           0x18          24   
.text._APP2_Tasks       0x9d006da8           0x18          24   
.text._APP1_Tasks       0x9d006dc0           0x18          24   
.text._APP_Tasks        0x9d006dd8           0x18          24   
.text                   0x9d006df0           0x18          24  App's exec code 
.rodata                 0x9d006e08           0x28          40  Read-only const 
.rodata                 0x9d006e30           0x14          20  Read-only const 
.text.SYS_INT_Initializ 0x9d006e44           0x14          20   
.text.vTaskSuspendAll   0x9d006e58           0x14          20   
.text.vTaskInternalSetT 0x9d006e6c           0x14          20   
.text.vTaskMissedYield  0x9d006e80           0x10          16   
.text.vApplicationIdleH 0x9d006e90            0x8           8   
.text.vApplicationTickH 0x9d006e98            0x8           8   
.text.APP3_Initialize   0x9d006ea0            0x8           8   
.text.vListInitialiseIt 0x9d006ea8            0x8           8   
.text._on_reset         0x9d006eb0            0x8           8   
.text._on_bootstrap     0x9d006eb8            0x8           8   
.rodata                 0x9d006ec0           0x10          16  Read-only const 
.rodata                 0x9d006ed0            0x4           4  Read-only const 
      Total kseg0_program_mem used  :      0x6ed4       28372  5.4% of 0x80000

kseg0 Boot-Memory Usage
section                    address  length [bytes]      (dec)  Description
-------                 ----------  -------------------------  -----------
         Total kseg0_boot_mem used  :           0           0  <1% of 0x970

Exception-Memory Usage 
section                    address  length [bytes]      (dec)  Description
-------                 ----------  -------------------------  -----------
.app_excpt              0x9fc01180           0x10          16  General-Exception 
.vector_0               0x9fc01200            0x8           8  Interrupt Vector 0 
.vector_1               0x9fc01220            0x8           8  Interrupt Vector 1 
.vector_2               0x9fc01240            0x8           8  Interrupt Vector 2 
.vector_3               0x9fc01260            0x8           8  Interrupt Vector 3 
.vector_4               0x9fc01280            0x8           8  Interrupt Vector 4 
.vector_5               0x9fc012a0            0x8           8  Interrupt Vector 5 
.vector_6               0x9fc012c0            0x8           8  Interrupt Vector 6 
.vector_7               0x9fc012e0            0x8           8  Interrupt Vector 7 
.vector_8               0x9fc01300            0x8           8  Interrupt Vector 8 
.vector_9               0x9fc01320            0x8           8  Interrupt Vector 9 
.vector_10              0x9fc01340            0x8           8  Interrupt Vector 10 
.vector_11              0x9fc01360            0x8           8  Interrupt Vector 11 
.vector_12              0x9fc01380            0x8           8  Interrupt Vector 12 
.vector_13              0x9fc013a0            0x8           8  Interrupt Vector 13 
.vector_14              0x9fc013c0            0x8           8  Interrupt Vector 14 
.vector_15              0x9fc013e0            0x8           8  Interrupt Vector 15 
.vector_16              0x9fc01400            0x8           8  Interrupt Vector 16 
.vector_17              0x9fc01420            0x8           8  Interrupt Vector 17 
.vector_18              0x9fc01440            0x8           8  Interrupt Vector 18 
.vector_19              0x9fc01460            0x8           8  Interrupt Vector 19 
.vector_20              0x9fc01480            0x8           8  Interrupt Vector 20 
.vector_21              0x9fc014a0            0x8           8  Interrupt Vector 21 
.vector_22              0x9fc014c0            0x8           8  Interrupt Vector 22 
.vector_23              0x9fc014e0            0x8           8  Interrupt Vector 23 
.vector_24              0x9fc01500            0x8           8  Interrupt Vector 24 
.vector_25              0x9fc01520            0x8           8  Interrupt Vector 25 
.vector_26              0x9fc01540            0x8           8  Interrupt Vector 26 
.vector_27              0x9fc01560            0x8           8  Interrupt Vector 27 
.vector_28              0x9fc01580            0x8           8  Interrupt Vector 28 
.vector_29              0x9fc015a0            0x8           8  Interrupt Vector 29 
.vector_30              0x9fc015c0            0x8           8  Interrupt Vector 30 
.vector_31              0x9fc015e0            0x8           8  Interrupt Vector 31 
.vector_32              0x9fc01600            0x8           8  Interrupt Vector 32 
.vector_33              0x9fc01620            0x8           8  Interrupt Vector 33 
.vector_34              0x9fc01640            0x8           8  Interrupt Vector 34 
.vector_35              0x9fc01660            0x8           8  Interrupt Vector 35 
.vector_36              0x9fc01680            0x8           8  Interrupt Vector 36 
.vector_37              0x9fc016a0            0x8           8  Interrupt Vector 37 
.vector_38              0x9fc016c0            0x8           8  Interrupt Vector 38 
.vector_39              0x9fc016e0            0x8           8  Interrupt Vector 39 
.vector_40              0x9fc01700            0x8           8  Interrupt Vector 40 
.vector_41              0x9fc01720            0x8           8  Interrupt Vector 41 
.vector_42              0x9fc01740            0x8           8  Interrupt Vector 42 
.vector_43              0x9fc01760            0x8           8  Interrupt Vector 43 
.vector_44              0x9fc01780            0x8           8  Interrupt Vector 44 
.vector_45              0x9fc017a0            0x8           8  Interrupt Vector 45 
          Total exception_mem used  :       0x180         384  9.4% of 0x1000

kseg1 Boot-Memory Usage
section                    address  length [bytes]      (dec)  Description
-------                 ----------  -------------------------  -----------
.reset                  0xbfc00000          0x19c         412  Reset handler 
.bev_excpt              0xbfc00380           0x10          16  BEV-Exception 
         Total kseg1_boot_mem used  :       0x1ac         428  36.6% of 0x490
        --------------------------------------------------------------------------
         Total Program Memory used  :      0x7200       29184  5.5% of 0x81e00
        --------------------------------------------------------------------------


kseg1 Data-Memory Usage
section                    address  length [bytes]      (dec)  Description
-------                 ----------  -------------------------  -----------
.sdata                  0xa0000000            0xc          12  Small init data 
.sbss                   0xa000000c           0x74         116  Small uninit data 
.bss                    0xa0000080         0x7560       30048  Uninitialized data 
.bss                    0xa00075e0           0xdc         220  Uninitialized data 
.data                   0xa00076bc           0xa4         164  Initialized data 
.bss                    0xa0007760           0x44          68  Uninitialized data 
         Total kseg1_data_mem used  :      0x77a4       30628  23.4% of 0x20000
        --------------------------------------------------------------------------
            Total Data Memory used  :      0x77a4       30628  23.4% of 0x20000
        --------------------------------------------------------------------------


Dynamic Data-Memory Reservation
section                    address  length [bytes]      (dec)  Description
-------                 ----------  -------------------------  -----------
heap                    0xa00077a8              0           0  Reserved for heap 
stack                   0xa00077c0        0x18830      100400  Reserved for stack 

        --------------------------------------------------------------------------

Discarded input sections

 .text          0x00000000        0x0 c:/program files (x86)/microchip/xc32/v2.30/bin/bin/../../lib/gcc/pic32mx/4.8.3/../../../../pic32mx/lib\debug-exception-return.o
 .data          0x00000000        0x0 c:/program files (x86)/microchip/xc32/v2.30/bin/bin/../../lib/gcc/pic32mx/4.8.3/../../../../pic32mx/lib\debug-exception-return.o
 .bss           0x00000000        0x0 c:/program files (x86)/microchip/xc32/v2.30/bin/bin/../../lib/gcc/pic32mx/4.8.3/../../../../pic32mx/lib\debug-exception-return.o
 .text          0x00000000        0x0 build/pic32mx_sk/production/_ext/1764187882/bsp.o
 .data          0x00000000        0x0 build/pic32mx_sk/production/_ext/1764187882/bsp.o
 .bss           0x00000000        0x0 build/pic32mx_sk/production/_ext/1764187882/bsp.o
 .reginfo       0x00000000       0x18 build/pic32mx_sk/production/_ext/1764187882/bsp.o
 .text.BSP_SwitchStateGet
                0x00000000       0x50 build/pic32mx_sk/production/_ext/1764187882/bsp.o
 .text.BSP_LEDStateSet
                0x00000000      0x130 build/pic32mx_sk/production/_ext/1764187882/bsp.o
 .text.BSP_LEDStateGet
                0x00000000       0x68 build/pic32mx_sk/production/_ext/1764187882/bsp.o
 .text.BSP_LEDOn
                0x00000000       0xc0 build/pic32mx_sk/production/_ext/1764187882/bsp.o
 .text.BSP_USBVBUSSwitchStateSet
                0x00000000       0x28 build/pic32mx_sk/production/_ext/1764187882/bsp.o
 .text.BSP_USBVBUSSwitchOverCurrentDetect
                0x00000000        0x8 build/pic32mx_sk/production/_ext/1764187882/bsp.o
 .text.BSP_USBVBUSPowerEnable
                0x00000000       0x28 build/pic32mx_sk/production/_ext/1764187882/bsp.o
 .text          0x00000000        0x0 build/pic32mx_sk/production/_ext/1458591747/sys_clk_pic32mx.o
 .data          0x00000000        0x0 build/pic32mx_sk/production/_ext/1458591747/sys_clk_pic32mx.o
 .bss           0x00000000        0x0 build/pic32mx_sk/production/_ext/1458591747/sys_clk_pic32mx.o
 .reginfo       0x00000000       0x18 build/pic32mx_sk/production/_ext/1458591747/sys_clk_pic32mx.o
 .text.SYS_CLK_Initialize
                0x00000000       0x50 build/pic32mx_sk/production/_ext/1458591747/sys_clk_pic32mx.o
 .text.SYS_CLK_SystemFrequencyGet
                0x00000000        0xc build/pic32mx_sk/production/_ext/1458591747/sys_clk_pic32mx.o
 .text.SYS_CLK_PeripheralFrequencyGet
                0x00000000        0xc build/pic32mx_sk/production/_ext/1458591747/sys_clk_pic32mx.o
 .text.SYS_CLK_ReferenceFrequencyGet
                0x00000000        0x8 build/pic32mx_sk/production/_ext/1458591747/sys_clk_pic32mx.o
 .text.SYS_CLK_SecondaryOscillatorEnable
                0x00000000       0x48 build/pic32mx_sk/production/_ext/1458591747/sys_clk_pic32mx.o
 .text.SYS_CLK_SecondaryOscillatorDisable
                0x00000000       0x48 build/pic32mx_sk/production/_ext/1458591747/sys_clk_pic32mx.o
 .text.SYS_CLK_SecondaryOscillatorIsEnabled
                0x00000000       0x10 build/pic32mx_sk/production/_ext/1458591747/sys_clk_pic32mx.o
 .text          0x00000000        0x0 build/pic32mx_sk/production/_ext/374885412/sys_devcon.o
 .data          0x00000000        0x0 build/pic32mx_sk/production/_ext/374885412/sys_devcon.o
 .bss           0x00000000        0x0 build/pic32mx_sk/production/_ext/374885412/sys_devcon.o
 .reginfo       0x00000000       0x18 build/pic32mx_sk/production/_ext/374885412/sys_devcon.o
 .text.SYS_DEVCON_Initialize
                0x00000000       0x14 build/pic32mx_sk/production/_ext/374885412/sys_devcon.o
 .text.SYS_DEVCON_Reinitialize
                0x00000000       0x10 build/pic32mx_sk/production/_ext/374885412/sys_devcon.o
 .text.SYS_DEVCON_Deinitialize
                0x00000000        0x8 build/pic32mx_sk/production/_ext/374885412/sys_devcon.o
 .text.SYS_DEVCON_Status
                0x00000000        0x8 build/pic32mx_sk/production/_ext/374885412/sys_devcon.o
 .text.SYS_DEVCON_Tasks
                0x00000000        0x8 build/pic32mx_sk/production/_ext/374885412/sys_devcon.o
 .text.SYS_DEVCON_SystemUnlock
                0x00000000       0x58 build/pic32mx_sk/production/_ext/374885412/sys_devcon.o
 .text.SYS_DEVCON_SystemLock
                0x00000000       0x48 build/pic32mx_sk/production/_ext/374885412/sys_devcon.o
 .text.SYS_DEVCON_JTAGEnable
                0x00000000       0x18 build/pic32mx_sk/production/_ext/374885412/sys_devcon.o
 .text.SYS_DEVCON_JTAGDisable
                0x00000000       0x18 build/pic32mx_sk/production/_ext/374885412/sys_devcon.o
 .text.SYS_DEVCON_TraceEnable
                0x00000000       0x1c build/pic32mx_sk/production/_ext/374885412/sys_devcon.o
 .text.SYS_DEVCON_TraceDisable
                0x00000000       0x18 build/pic32mx_sk/production/_ext/374885412/sys_devcon.o
 .text.SYS_DEVCON_PowerModeEnter
                0x00000000       0x44 build/pic32mx_sk/production/_ext/374885412/sys_devcon.o
 .text          0x00000000        0x0 build/pic32mx_sk/production/_ext/374885412/sys_devcon_pic32mx.o
 .data          0x00000000        0x0 build/pic32mx_sk/production/_ext/374885412/sys_devcon_pic32mx.o
 .bss           0x00000000        0x0 build/pic32mx_sk/production/_ext/374885412/sys_devcon_pic32mx.o
 .reginfo       0x00000000       0x18 build/pic32mx_sk/production/_ext/374885412/sys_devcon_pic32mx.o
 .text.SYS_DEVCON_PerformanceConfig
                0x00000000       0xe0 build/pic32mx_sk/production/_ext/374885412/sys_devcon_pic32mx.o
 .text          0x00000000        0x0 build/pic32mx_sk/production/_ext/1255054701/sys_ports_static.o
 .data          0x00000000        0x0 build/pic32mx_sk/production/_ext/1255054701/sys_ports_static.o
 .bss           0x00000000        0x0 build/pic32mx_sk/production/_ext/1255054701/sys_ports_static.o
 .reginfo       0x00000000       0x18 build/pic32mx_sk/production/_ext/1255054701/sys_ports_static.o
 .text.SYS_PORTS_Initialize
                0x00000000       0x7c build/pic32mx_sk/production/_ext/1255054701/sys_ports_static.o
 .text.SYS_PORTS_Read
                0x00000000       0x28 build/pic32mx_sk/production/_ext/1255054701/sys_ports_static.o
 .text.SYS_PORTS_Write
                0x00000000       0x28 build/pic32mx_sk/production/_ext/1255054701/sys_ports_static.o
 .text.SYS_PORTS_LatchedGet
                0x00000000        0x8 build/pic32mx_sk/production/_ext/1255054701/sys_ports_static.o
 .text.SYS_PORTS_Set
                0x00000000       0x2c build/pic32mx_sk/production/_ext/1255054701/sys_ports_static.o
 .text.SYS_PORTS_Clear
                0x00000000       0x28 build/pic32mx_sk/production/_ext/1255054701/sys_ports_static.o
 .text.SYS_PORTS_DirectionSelect
                0x00000000       0x54 build/pic32mx_sk/production/_ext/1255054701/sys_ports_static.o
 .text.SYS_PORTS_DirectionGet
                0x00000000       0x28 build/pic32mx_sk/production/_ext/1255054701/sys_ports_static.o
 .text.SYS_PORTS_Toggle
                0x00000000       0x28 build/pic32mx_sk/production/_ext/1255054701/sys_ports_static.o
 .text.SYS_PORTS_OpenDrainEnable
                0x00000000       0x28 build/pic32mx_sk/production/_ext/1255054701/sys_ports_static.o
 .text.SYS_PORTS_OpenDrainDisable
                0x00000000       0x28 build/pic32mx_sk/production/_ext/1255054701/sys_ports_static.o
 .text.SYS_PORTS_InterruptStatusGet
                0x00000000        0x8 build/pic32mx_sk/production/_ext/1255054701/sys_ports_static.o
 .text.SYS_PORTS_ChangeNotificationGlobalEnable
                0x00000000        0x8 build/pic32mx_sk/production/_ext/1255054701/sys_ports_static.o
 .text.SYS_PORTS_ChangeNotificationGlobalDisable
                0x00000000        0x8 build/pic32mx_sk/production/_ext/1255054701/sys_ports_static.o
 .text.SYS_PORTS_GlobalChangeNotificationDisable
                0x00000000        0x8 build/pic32mx_sk/production/_ext/1255054701/sys_ports_static.o
 .text.SYS_PORTS_ChangeNotificationEnable
                0x00000000        0x8 build/pic32mx_sk/production/_ext/1255054701/sys_ports_static.o
 .text.SYS_PORTS_ChangeNotificationDisable
                0x00000000        0x8 build/pic32mx_sk/production/_ext/1255054701/sys_ports_static.o
 .text.SYS_PORTS_ChangeNotificationInIdleModeEnable
                0x00000000        0x8 build/pic32mx_sk/production/_ext/1255054701/sys_ports_static.o
 .text.SYS_PORTS_ChangeNotificationInIdleModeDisable
                0x00000000        0x8 build/pic32mx_sk/production/_ext/1255054701/sys_ports_static.o
 .text.SYS_PORTS_ChangeNotificationPullUpEnable
                0x00000000        0x8 build/pic32mx_sk/production/_ext/1255054701/sys_ports_static.o
 .text.SYS_PORTS_ChangeNotificationPullUpDisable
                0x00000000        0x8 build/pic32mx_sk/production/_ext/1255054701/sys_ports_static.o
 .text.SYS_PORTS_PinModeSelect
                0x00000000       0x64 build/pic32mx_sk/production/_ext/1255054701/sys_ports_static.o
 .text.SYS_PORTS_PinWrite
                0x00000000       0x60 build/pic32mx_sk/production/_ext/1255054701/sys_ports_static.o
 .text.SYS_PORTS_PinLatchedGet
                0x00000000        0x8 build/pic32mx_sk/production/_ext/1255054701/sys_ports_static.o
 .text.SYS_PORTS_PinRead
                0x00000000       0x2c build/pic32mx_sk/production/_ext/1255054701/sys_ports_static.o
 .text.SYS_PORTS_PinToggle
                0x00000000       0x30 build/pic32mx_sk/production/_ext/1255054701/sys_ports_static.o
 .text.SYS_PORTS_PinSet
                0x00000000       0x30 build/pic32mx_sk/production/_ext/1255054701/sys_ports_static.o
 .text.SYS_PORTS_PinClear
                0x00000000       0x30 build/pic32mx_sk/production/_ext/1255054701/sys_ports_static.o
 .text.SYS_PORTS_PinDirectionSelect
                0x00000000       0x60 build/pic32mx_sk/production/_ext/1255054701/sys_ports_static.o
 .text.SYS_PORTS_PinOpenDrainEnable
                0x00000000       0x30 build/pic32mx_sk/production/_ext/1255054701/sys_ports_static.o
 .text.SYS_PORTS_PinOpenDrainDisable
                0x00000000       0x30 build/pic32mx_sk/production/_ext/1255054701/sys_ports_static.o
 .text.SYS_PORTS_PinPullUpEnable
                0x00000000        0x8 build/pic32mx_sk/production/_ext/1255054701/sys_ports_static.o
 .text.SYS_PORTS_PinPullUpDisable
                0x00000000        0x8 build/pic32mx_sk/production/_ext/1255054701/sys_ports_static.o
 .text.SYS_PORTS_PinPullDownEnable
                0x00000000        0x8 build/pic32mx_sk/production/_ext/1255054701/sys_ports_static.o
 .text.SYS_PORTS_PinPullDownDisable
                0x00000000        0x8 build/pic32mx_sk/production/_ext/1255054701/sys_ports_static.o
 .text.SYS_PORTS_InterruptEnable
                0x00000000        0x8 build/pic32mx_sk/production/_ext/1255054701/sys_ports_static.o
 .text.SYS_PORTS_RemapInput
                0x00000000      0x25c build/pic32mx_sk/production/_ext/1255054701/sys_ports_static.o
 .text.SYS_PORTS_RemapOutput
                0x00000000       0x68 build/pic32mx_sk/production/_ext/1255054701/sys_ports_static.o
 .text          0x00000000        0x0 build/pic32mx_sk/production/_ext/351744058/system_init.o
 .data          0x00000000        0x0 build/pic32mx_sk/production/_ext/351744058/system_init.o
 .bss           0x00000000        0x0 build/pic32mx_sk/production/_ext/351744058/system_init.o
 .reginfo       0x00000000       0x18 build/pic32mx_sk/production/_ext/351744058/system_init.o
 .text          0x00000000        0x0 build/pic32mx_sk/production/_ext/351744058/system_interrupt.o
 .data          0x00000000        0x0 build/pic32mx_sk/production/_ext/351744058/system_interrupt.o
 .bss           0x00000000        0x0 build/pic32mx_sk/production/_ext/351744058/system_interrupt.o
 .reginfo       0x00000000       0x18 build/pic32mx_sk/production/_ext/351744058/system_interrupt.o
 .text          0x00000000        0x0 build/pic32mx_sk/production/_ext/351744058/system_exceptions.o
 .data          0x00000000        0x0 build/pic32mx_sk/production/_ext/351744058/system_exceptions.o
 .bss           0x00000000        0x0 build/pic32mx_sk/production/_ext/351744058/system_exceptions.o
 .reginfo       0x00000000       0x18 build/pic32mx_sk/production/_ext/351744058/system_exceptions.o
 .text          0x00000000        0x0 build/pic32mx_sk/production/_ext/351744058/system_tasks.o
 .data          0x00000000        0x0 build/pic32mx_sk/production/_ext/351744058/system_tasks.o
 .bss           0x00000000        0x0 build/pic32mx_sk/production/_ext/351744058/system_tasks.o
 .reginfo       0x00000000       0x18 build/pic32mx_sk/production/_ext/351744058/system_tasks.o
 .text          0x00000000        0x0 build/pic32mx_sk/production/_ext/351744058/system_interrupt_a.o
 .data          0x00000000        0x0 build/pic32mx_sk/production/_ext/351744058/system_interrupt_a.o
 .bss           0x00000000        0x0 build/pic32mx_sk/production/_ext/351744058/system_interrupt_a.o
 .reginfo       0x00000000       0x18 build/pic32mx_sk/production/_ext/351744058/system_interrupt_a.o
 .text          0x00000000        0x0 build/pic32mx_sk/production/_ext/351744058/rtos_hooks.o
 .data          0x00000000        0x0 build/pic32mx_sk/production/_ext/351744058/rtos_hooks.o
 .bss           0x00000000        0x0 build/pic32mx_sk/production/_ext/351744058/rtos_hooks.o
 .reginfo       0x00000000       0x18 build/pic32mx_sk/production/_ext/351744058/rtos_hooks.o
 .text          0x00000000        0x0 build/pic32mx_sk/production/_ext/1360937237/app.o
 .data          0x00000000        0x0 build/pic32mx_sk/production/_ext/1360937237/app.o
 .bss           0x00000000        0x0 build/pic32mx_sk/production/_ext/1360937237/app.o
 .reginfo       0x00000000       0x18 build/pic32mx_sk/production/_ext/1360937237/app.o
 .text          0x00000000        0x0 build/pic32mx_sk/production/_ext/1360937237/app1.o
 .data          0x00000000        0x0 build/pic32mx_sk/production/_ext/1360937237/app1.o
 .bss           0x00000000        0x0 build/pic32mx_sk/production/_ext/1360937237/app1.o
 .reginfo       0x00000000       0x18 build/pic32mx_sk/production/_ext/1360937237/app1.o
 .text          0x00000000        0x0 build/pic32mx_sk/production/_ext/1360937237/app2.o
 .data          0x00000000        0x0 build/pic32mx_sk/production/_ext/1360937237/app2.o
 .bss           0x00000000        0x0 build/pic32mx_sk/production/_ext/1360937237/app2.o
 .reginfo       0x00000000       0x18 build/pic32mx_sk/production/_ext/1360937237/app2.o
 .text.RTOS_SPI2_Test
                0x00000000       0x44 build/pic32mx_sk/production/_ext/1360937237/app2.o
 .text          0x00000000        0x0 build/pic32mx_sk/production/_ext/1360937237/app3.o
 .data          0x00000000        0x0 build/pic32mx_sk/production/_ext/1360937237/app3.o
 .bss           0x00000000        0x0 build/pic32mx_sk/production/_ext/1360937237/app3.o
 .reginfo       0x00000000       0x18 build/pic32mx_sk/production/_ext/1360937237/app3.o
 .text          0x00000000        0x0 build/pic32mx_sk/production/_ext/1360937237/main.o
 .data          0x00000000        0x0 build/pic32mx_sk/production/_ext/1360937237/main.o
 .bss           0x00000000        0x0 build/pic32mx_sk/production/_ext/1360937237/main.o
 .reginfo       0x00000000       0x18 build/pic32mx_sk/production/_ext/1360937237/main.o
 .text          0x00000000        0x0 build/pic32mx_sk/production/_ext/2067596619/osal_freertos.o
 .data          0x00000000        0x0 build/pic32mx_sk/production/_ext/2067596619/osal_freertos.o
 .bss           0x00000000        0x0 build/pic32mx_sk/production/_ext/2067596619/osal_freertos.o
 .reginfo       0x00000000       0x18 build/pic32mx_sk/production/_ext/2067596619/osal_freertos.o
 .text.OSAL_CRIT_Enter
                0x00000000       0x48 build/pic32mx_sk/production/_ext/2067596619/osal_freertos.o
 .text.OSAL_CRIT_Leave
                0x00000000       0x44 build/pic32mx_sk/production/_ext/2067596619/osal_freertos.o
 .text.OSAL_SEM_Create
                0x00000000       0x8c build/pic32mx_sk/production/_ext/2067596619/osal_freertos.o
 .text.OSAL_SEM_Delete
                0x00000000       0x30 build/pic32mx_sk/production/_ext/2067596619/osal_freertos.o
 .text.OSAL_SEM_Pend
                0x00000000       0x30 build/pic32mx_sk/production/_ext/2067596619/osal_freertos.o
 .text.OSAL_SEM_Post
                0x00000000       0x30 build/pic32mx_sk/production/_ext/2067596619/osal_freertos.o
 .text.OSAL_SEM_PostISR
                0x00000000       0x4c build/pic32mx_sk/production/_ext/2067596619/osal_freertos.o
 .text.OSAL_SEM_GetCount
                0x00000000       0x2c build/pic32mx_sk/production/_ext/2067596619/osal_freertos.o
 .text.OSAL_MUTEX_Create
                0x00000000       0x3c build/pic32mx_sk/production/_ext/2067596619/osal_freertos.o
 .text.OSAL_MUTEX_Delete
                0x00000000       0x3c build/pic32mx_sk/production/_ext/2067596619/osal_freertos.o
 .text.OSAL_MUTEX_Lock
                0x00000000       0x30 build/pic32mx_sk/production/_ext/2067596619/osal_freertos.o
 .text.OSAL_MUTEX_Unlock
                0x00000000       0x30 build/pic32mx_sk/production/_ext/2067596619/osal_freertos.o
 .rodata        0x00000000        0xc build/pic32mx_sk/production/_ext/2067596619/osal_freertos.o
 .text.OSAL_Name
                0x00000000        0xc build/pic32mx_sk/production/_ext/2067596619/osal_freertos.o
 .text.OSAL_Initialize
                0x00000000        0x8 build/pic32mx_sk/production/_ext/2067596619/osal_freertos.o
 .text          0x00000000        0x0 build/pic32mx_sk/production/_ext/711155467/sys_int_pic32.o
 .data          0x00000000        0x0 build/pic32mx_sk/production/_ext/711155467/sys_int_pic32.o
 .bss           0x00000000        0x0 build/pic32mx_sk/production/_ext/711155467/sys_int_pic32.o
 .reginfo       0x00000000       0x18 build/pic32mx_sk/production/_ext/711155467/sys_int_pic32.o
 .text.SYS_INT_StatusGetAndDisable
                0x00000000       0x1c build/pic32mx_sk/production/_ext/711155467/sys_int_pic32.o
 .text.SYS_INT_StatusRestore
                0x00000000       0x1c build/pic32mx_sk/production/_ext/711155467/sys_int_pic32.o
 .text.SYS_INT_Disable
                0x00000000       0x20 build/pic32mx_sk/production/_ext/711155467/sys_int_pic32.o
 .text.SYS_INT_SourceDisable
                0x00000000       0x54 build/pic32mx_sk/production/_ext/711155467/sys_int_pic32.o
 .text.SYS_INT_ExternalInterruptTriggerSet
                0x00000000       0x28 build/pic32mx_sk/production/_ext/711155467/sys_int_pic32.o
 .text          0x00000000        0x0 build/pic32mx_sk/production/_ext/427228813/heap_1.o
 .data          0x00000000        0x0 build/pic32mx_sk/production/_ext/427228813/heap_1.o
 .reginfo       0x00000000       0x18 build/pic32mx_sk/production/_ext/427228813/heap_1.o
 .text.vPortInitialiseBlocks
                0x00000000        0x8 build/pic32mx_sk/production/_ext/427228813/heap_1.o
 .text.xPortGetFreeHeapSize
                0x00000000       0x10 build/pic32mx_sk/production/_ext/427228813/heap_1.o
 .text          0x00000000        0x0 build/pic32mx_sk/production/_ext/789006650/port.o
 .data          0x00000000        0x0 build/pic32mx_sk/production/_ext/789006650/port.o
 .reginfo       0x00000000       0x18 build/pic32mx_sk/production/_ext/789006650/port.o
 .text.vPortEndScheduler
                0x00000000       0x30 build/pic32mx_sk/production/_ext/789006650/port.o
 .text.vPortClearInterruptMaskFromISR
                0x00000000       0x1c build/pic32mx_sk/production/_ext/789006650/port.o
 .data          0x00000000        0x0 build/pic32mx_sk/production/_ext/789006650/port_asm.o
 .bss           0x00000000        0x0 build/pic32mx_sk/production/_ext/789006650/port_asm.o
 .reginfo       0x00000000       0x18 build/pic32mx_sk/production/_ext/789006650/port_asm.o
 .text          0x00000000        0x0 build/pic32mx_sk/production/_ext/161854096/croutine.o
 .data          0x00000000        0x0 build/pic32mx_sk/production/_ext/161854096/croutine.o
 .bss           0x00000000        0x0 build/pic32mx_sk/production/_ext/161854096/croutine.o
 .reginfo       0x00000000       0x18 build/pic32mx_sk/production/_ext/161854096/croutine.o
 .text          0x00000000        0x0 build/pic32mx_sk/production/_ext/161854096/list.o
 .data          0x00000000        0x0 build/pic32mx_sk/production/_ext/161854096/list.o
 .bss           0x00000000        0x0 build/pic32mx_sk/production/_ext/161854096/list.o
 .reginfo       0x00000000       0x18 build/pic32mx_sk/production/_ext/161854096/list.o
 .text          0x00000000        0x0 build/pic32mx_sk/production/_ext/161854096/queue.o
 .data          0x00000000        0x0 build/pic32mx_sk/production/_ext/161854096/queue.o
 .bss           0x00000000        0x0 build/pic32mx_sk/production/_ext/161854096/queue.o
 .reginfo       0x00000000       0x18 build/pic32mx_sk/production/_ext/161854096/queue.o
 .text.xQueueCreateCountingSemaphore
                0x00000000       0x74 build/pic32mx_sk/production/_ext/161854096/queue.o
 .text.xQueueCreateMutex
                0x00000000       0x58 build/pic32mx_sk/production/_ext/161854096/queue.o
 .text.xQueueGenericSendFromISR
                0x00000000      0x170 build/pic32mx_sk/production/_ext/161854096/queue.o
 .text.xQueueGiveFromISR
                0x00000000      0x118 build/pic32mx_sk/production/_ext/161854096/queue.o
 .text.xQueueSemaphoreTake
                0x00000000      0x270 build/pic32mx_sk/production/_ext/161854096/queue.o
 .text.xQueuePeek
                0x00000000      0x1ec build/pic32mx_sk/production/_ext/161854096/queue.o
 .text.xQueueReceiveFromISR
                0x00000000      0x118 build/pic32mx_sk/production/_ext/161854096/queue.o
 .text.xQueuePeekFromISR
                0x00000000       0xc4 build/pic32mx_sk/production/_ext/161854096/queue.o
 .text.uxQueueMessagesWaiting
                0x00000000       0x4c build/pic32mx_sk/production/_ext/161854096/queue.o
 .text.uxQueueSpacesAvailable
                0x00000000       0x50 build/pic32mx_sk/production/_ext/161854096/queue.o
 .text.uxQueueMessagesWaitingFromISR
                0x00000000       0x38 build/pic32mx_sk/production/_ext/161854096/queue.o
 .text.vQueueDelete
                0x00000000       0x3c build/pic32mx_sk/production/_ext/161854096/queue.o
 .text.xQueueIsQueueEmptyFromISR
                0x00000000       0x3c build/pic32mx_sk/production/_ext/161854096/queue.o
 .text.xQueueIsQueueFullFromISR
                0x00000000       0x44 build/pic32mx_sk/production/_ext/161854096/queue.o
 .text          0x00000000        0x0 build/pic32mx_sk/production/_ext/161854096/tasks.o
 .data          0x00000000        0x0 build/pic32mx_sk/production/_ext/161854096/tasks.o
 .reginfo       0x00000000       0x18 build/pic32mx_sk/production/_ext/161854096/tasks.o
 .text.prvTaskIsTaskSuspended
                0x00000000       0x64 build/pic32mx_sk/production/_ext/161854096/tasks.o
 .text.uxTaskPriorityGetFromISR
                0x00000000       0x3c build/pic32mx_sk/production/_ext/161854096/tasks.o
 .text.xTaskResumeFromISR
                0x00000000       0xf0 build/pic32mx_sk/production/_ext/161854096/tasks.o
 .text.vTaskEndScheduler
                0x00000000       0x40 build/pic32mx_sk/production/_ext/161854096/tasks.o
 .text.xTaskGetTickCount
                0x00000000        0xc build/pic32mx_sk/production/_ext/161854096/tasks.o
 .text.xTaskGetTickCountFromISR
                0x00000000        0xc build/pic32mx_sk/production/_ext/161854096/tasks.o
 .text.uxTaskGetNumberOfTasks
                0x00000000        0xc build/pic32mx_sk/production/_ext/161854096/tasks.o
 .text.pcTaskGetName
                0x00000000       0x40 build/pic32mx_sk/production/_ext/161854096/tasks.o
 .text.vTaskPlaceOnUnorderedEventList
                0x00000000       0x90 build/pic32mx_sk/production/_ext/161854096/tasks.o
 .text.vTaskRemoveFromUnorderedEventList
                0x00000000       0xd4 build/pic32mx_sk/production/_ext/161854096/tasks.o
 .text.xTaskGetCurrentTaskHandle
                0x00000000        0xc build/pic32mx_sk/production/_ext/161854096/tasks.o
 .text.xTaskPriorityInherit
                0x00000000      0x14c build/pic32mx_sk/production/_ext/161854096/tasks.o
 .text.vTaskPriorityDisinheritAfterTimeout
                0x00000000      0x150 build/pic32mx_sk/production/_ext/161854096/tasks.o
 .text.vTaskDelete
                0x00000000      0x140 build/pic32mx_sk/production/_ext/161854096/tasks.o
 .text.uxTaskPriorityGet
                0x00000000       0x38 build/pic32mx_sk/production/_ext/161854096/tasks.o
 .text.vTaskPrioritySet
                0x00000000      0x178 build/pic32mx_sk/production/_ext/161854096/tasks.o
 .text.vTaskSuspend
                0x00000000      0x158 build/pic32mx_sk/production/_ext/161854096/tasks.o
 .text.vTaskResume
                0x00000000       0xdc build/pic32mx_sk/production/_ext/161854096/tasks.o
 .text.vTaskDelayUntil
                0x00000000       0xec build/pic32mx_sk/production/_ext/161854096/tasks.o
 .text.vTaskSetTimeOutState
                0x00000000       0x50 build/pic32mx_sk/production/_ext/161854096/tasks.o
 .text.uxTaskResetEventItemValue
                0x00000000       0x24 build/pic32mx_sk/production/_ext/161854096/tasks.o
 .text.pvTaskIncrementMutexHeldCount
                0x00000000       0x28 build/pic32mx_sk/production/_ext/161854096/tasks.o
 .text.ulTaskNotifyTake
                0x00000000       0xc4 build/pic32mx_sk/production/_ext/161854096/tasks.o
 .text.xTaskNotifyWait
                0x00000000      0x108 build/pic32mx_sk/production/_ext/161854096/tasks.o
 .text.xTaskGenericNotify
                0x00000000      0x1a0 build/pic32mx_sk/production/_ext/161854096/tasks.o
 .text.xTaskGenericNotifyFromISR
                0x00000000      0x1d8 build/pic32mx_sk/production/_ext/161854096/tasks.o
 .text.vTaskNotifyGiveFromISR
                0x00000000      0x134 build/pic32mx_sk/production/_ext/161854096/tasks.o
 .text.xTaskNotifyStateClear
                0x00000000       0x60 build/pic32mx_sk/production/_ext/161854096/tasks.o
 .text          0x00000000        0x0 build/pic32mx_sk/production/_ext/161854096/timers.o
 .data          0x00000000        0x0 build/pic32mx_sk/production/_ext/161854096/timers.o
 .bss           0x00000000        0x0 build/pic32mx_sk/production/_ext/161854096/timers.o
 .reginfo       0x00000000       0x18 build/pic32mx_sk/production/_ext/161854096/timers.o
 .text          0x00000000        0x0 build/pic32mx_sk/production/_ext/161854096/event_groups.o
 .data          0x00000000        0x0 build/pic32mx_sk/production/_ext/161854096/event_groups.o
 .bss           0x00000000        0x0 build/pic32mx_sk/production/_ext/161854096/event_groups.o
 .reginfo       0x00000000       0x18 build/pic32mx_sk/production/_ext/161854096/event_groups.o
 .text.xEventGroupCreate
                0x00000000       0x3c build/pic32mx_sk/production/_ext/161854096/event_groups.o
 .rodata        0x00000000       0x44 build/pic32mx_sk/production/_ext/161854096/event_groups.o
 .text.xEventGroupWaitBits
                0x00000000      0x190 build/pic32mx_sk/production/_ext/161854096/event_groups.o
 .text.xEventGroupClearBits
                0x00000000       0x80 build/pic32mx_sk/production/_ext/161854096/event_groups.o
 .text.xEventGroupGetBitsFromISR
                0x00000000       0x34 build/pic32mx_sk/production/_ext/161854096/event_groups.o
 .text.xEventGroupSetBits
                0x00000000      0x12c build/pic32mx_sk/production/_ext/161854096/event_groups.o
 .text.xEventGroupSync
                0x00000000      0x16c build/pic32mx_sk/production/_ext/161854096/event_groups.o
 .text.vEventGroupDelete
                0x00000000       0x88 build/pic32mx_sk/production/_ext/161854096/event_groups.o
 .text.vEventGroupSetBitsCallback
                0x00000000       0x1c build/pic32mx_sk/production/_ext/161854096/event_groups.o
 .text.vEventGroupClearBitsCallback
                0x00000000       0x1c build/pic32mx_sk/production/_ext/161854096/event_groups.o
 .text          0x00000000        0x0 build/pic32mx_sk/production/_ext/161854096/stream_buffer.o
 .data          0x00000000        0x0 build/pic32mx_sk/production/_ext/161854096/stream_buffer.o
 .bss           0x00000000        0x0 build/pic32mx_sk/production/_ext/161854096/stream_buffer.o
 .reginfo       0x00000000       0x18 build/pic32mx_sk/production/_ext/161854096/stream_buffer.o
 .text.prvBytesInBuffer
                0x00000000       0x28 build/pic32mx_sk/production/_ext/161854096/stream_buffer.o
 .rodata        0x00000000       0x44 build/pic32mx_sk/production/_ext/161854096/stream_buffer.o
 .text.prvInitialiseNewStreamBuffer
                0x00000000       0x98 build/pic32mx_sk/production/_ext/161854096/stream_buffer.o
 .text.prvWriteBytesToBuffer
                0x00000000      0x10c build/pic32mx_sk/production/_ext/161854096/stream_buffer.o
 .text.prvWriteMessageToBuffer
                0x00000000       0x80 build/pic32mx_sk/production/_ext/161854096/stream_buffer.o
 .text.prvReadBytesFromBuffer
                0x00000000      0x11c build/pic32mx_sk/production/_ext/161854096/stream_buffer.o
 .text.prvReadMessageFromBuffer
                0x00000000       0xa0 build/pic32mx_sk/production/_ext/161854096/stream_buffer.o
 .text.xStreamBufferGenericCreate
                0x00000000       0xac build/pic32mx_sk/production/_ext/161854096/stream_buffer.o
 .text.vStreamBufferDelete
                0x00000000       0x64 build/pic32mx_sk/production/_ext/161854096/stream_buffer.o
 .text.xStreamBufferReset
                0x00000000       0x70 build/pic32mx_sk/production/_ext/161854096/stream_buffer.o
 .text.xStreamBufferSetTriggerLevel
                0x00000000       0x60 build/pic32mx_sk/production/_ext/161854096/stream_buffer.o
 .text.xStreamBufferSpacesAvailable
                0x00000000       0x5c build/pic32mx_sk/production/_ext/161854096/stream_buffer.o
 .text.xStreamBufferBytesAvailable
                0x00000000       0x3c build/pic32mx_sk/production/_ext/161854096/stream_buffer.o
 .text.xStreamBufferSend
                0x00000000      0x1c4 build/pic32mx_sk/production/_ext/161854096/stream_buffer.o
 .text.xStreamBufferSendFromISR
                0x00000000      0x10c build/pic32mx_sk/production/_ext/161854096/stream_buffer.o
 .text.xStreamBufferReceive
                0x00000000      0x1a0 build/pic32mx_sk/production/_ext/161854096/stream_buffer.o
 .text.xStreamBufferReceiveFromISR
                0x00000000      0x108 build/pic32mx_sk/production/_ext/161854096/stream_buffer.o
 .text.xStreamBufferIsEmpty
                0x00000000       0x44 build/pic32mx_sk/production/_ext/161854096/stream_buffer.o
 .text.xStreamBufferIsFull
                0x00000000       0x60 build/pic32mx_sk/production/_ext/161854096/stream_buffer.o
 .text.xStreamBufferSendCompletedFromISR
                0x00000000       0x8c build/pic32mx_sk/production/_ext/161854096/stream_buffer.o
 .text.xStreamBufferReceiveCompletedFromISR
                0x00000000       0x8c build/pic32mx_sk/production/_ext/161854096/stream_buffer.o
 .text          0x00000000        0x0 build/pic32mx_sk/production/_ext/1360937237/io_setup.o
 .data          0x00000000        0x0 build/pic32mx_sk/production/_ext/1360937237/io_setup.o
 .bss           0x00000000        0x0 build/pic32mx_sk/production/_ext/1360937237/io_setup.o
 .reginfo       0x00000000       0x18 build/pic32mx_sk/production/_ext/1360937237/io_setup.o
 .text.system_reg_lock
                0x00000000       0x10 build/pic32mx_sk/production/_ext/1360937237/io_setup.o
 .data          0x00000000        0x0 ..\..\..\..\..\..\..\..\shiro019_accelerometer_spi.X\dist\default\production\shiro019_accelerometer_spi.X.a(accel_define.o)
 .bss           0x00000000        0x0 ..\..\..\..\..\..\..\..\shiro019_accelerometer_spi.X\dist\default\production\shiro019_accelerometer_spi.X.a(accel_define.o)
 .reginfo       0x00000000       0x18 ..\..\..\..\..\..\..\..\shiro019_accelerometer_spi.X\dist\default\production\shiro019_accelerometer_spi.X.a(accel_define.o)
 .data          0x00000000        0x0 ..\..\..\..\..\..\..\..\shiro019_accelerometer_spi.X\dist\default\production\shiro019_accelerometer_spi.X.a(accel_read_x.o)
 .bss           0x00000000        0x0 ..\..\..\..\..\..\..\..\shiro019_accelerometer_spi.X\dist\default\production\shiro019_accelerometer_spi.X.a(accel_read_x.o)
 .reginfo       0x00000000       0x18 ..\..\..\..\..\..\..\..\shiro019_accelerometer_spi.X\dist\default\production\shiro019_accelerometer_spi.X.a(accel_read_x.o)
 .data          0x00000000        0x0 ..\..\..\..\..\..\..\..\shiro019_accelerometer_spi.X\dist\default\production\shiro019_accelerometer_spi.X.a(accel_read_y.o)
 .bss           0x00000000        0x0 ..\..\..\..\..\..\..\..\shiro019_accelerometer_spi.X\dist\default\production\shiro019_accelerometer_spi.X.a(accel_read_y.o)
 .reginfo       0x00000000       0x18 ..\..\..\..\..\..\..\..\shiro019_accelerometer_spi.X\dist\default\production\shiro019_accelerometer_spi.X.a(accel_read_y.o)
 .data          0x00000000        0x0 ..\..\..\..\..\..\..\..\shiro019_accelerometer_spi.X\dist\default\production\shiro019_accelerometer_spi.X.a(accel_setup.o)
 .bss           0x00000000        0x0 ..\..\..\..\..\..\..\..\shiro019_accelerometer_spi.X\dist\default\production\shiro019_accelerometer_spi.X.a(accel_setup.o)
 .reginfo       0x00000000       0x18 ..\..\..\..\..\..\..\..\shiro019_accelerometer_spi.X\dist\default\production\shiro019_accelerometer_spi.X.a(accel_setup.o)
 .data          0x00000000        0x0 ..\..\..\..\..\..\..\..\shiro019_accelerometer_spi.X\dist\default\production\shiro019_accelerometer_spi.X.a(spi2_read_register.o)
 .bss           0x00000000        0x0 ..\..\..\..\..\..\..\..\shiro019_accelerometer_spi.X\dist\default\production\shiro019_accelerometer_spi.X.a(spi2_read_register.o)
 .reginfo       0x00000000       0x18 ..\..\..\..\..\..\..\..\shiro019_accelerometer_spi.X\dist\default\production\shiro019_accelerometer_spi.X.a(spi2_read_register.o)
 .data          0x00000000        0x0 ..\..\..\..\..\..\..\..\shiro019_accelerometer_spi.X\dist\default\production\shiro019_accelerometer_spi.X.a(spi2_setup.o)
 .bss           0x00000000        0x0 ..\..\..\..\..\..\..\..\shiro019_accelerometer_spi.X\dist\default\production\shiro019_accelerometer_spi.X.a(spi2_setup.o)
 .reginfo       0x00000000       0x18 ..\..\..\..\..\..\..\..\shiro019_accelerometer_spi.X\dist\default\production\shiro019_accelerometer_spi.X.a(spi2_setup.o)
 .data          0x00000000        0x0 ..\..\..\..\..\..\..\..\shiro019_accelerometer_spi.X\dist\default\production\shiro019_accelerometer_spi.X.a(spi2_write_register.o)
 .bss           0x00000000        0x0 ..\..\..\..\..\..\..\..\shiro019_accelerometer_spi.X\dist\default\production\shiro019_accelerometer_spi.X.a(spi2_write_register.o)
 .reginfo       0x00000000       0x18 ..\..\..\..\..\..\..\..\shiro019_accelerometer_spi.X\dist\default\production\shiro019_accelerometer_spi.X.a(spi2_write_register.o)
 .text          0x00000000        0x0 C:\Users\shiro019\AppData\Local\Temp\ccoS15Bg.o
 .data          0x00000000        0x0 C:\Users\shiro019\AppData\Local\Temp\ccoS15Bg.o
 .bss           0x00000000        0x0 C:\Users\shiro019\AppData\Local\Temp\ccoS15Bg.o
 .reginfo       0x00000000       0x18 C:\Users\shiro019\AppData\Local\Temp\ccoS15Bg.o
 .text          0x00000000        0x0 C:\Users\shiro019\AppData\Local\Temp\ccO49Ijp.o
 .data          0x00000000        0x0 C:\Users\shiro019\AppData\Local\Temp\ccO49Ijp.o
 .bss           0x00000000        0x0 C:\Users\shiro019\AppData\Local\Temp\ccO49Ijp.o
 .reginfo       0x00000000       0x18 C:\Users\shiro019\AppData\Local\Temp\ccO49Ijp.o
 .text          0x00000000        0x0 C:\Users\shiro019\AppData\Local\Temp\ccgo7Q8F.o
 .data          0x00000000        0x0 C:\Users\shiro019\AppData\Local\Temp\ccgo7Q8F.o
 .bss           0x00000000        0x0 C:\Users\shiro019\AppData\Local\Temp\ccgo7Q8F.o
 .reginfo       0x00000000       0x18 C:\Users\shiro019\AppData\Local\Temp\ccgo7Q8F.o
 .discard       0x00000000       0xb8 C:\Users\shiro019\AppData\Local\Temp\ccgo7Q8F.o
 .data          0x00000000        0x0 c:/program files (x86)/microchip/xc32/v2.30/bin/bin/../../lib/gcc/pic32mx/4.8.3/../../../../pic32mx/lib\pic32_software_reset.o
 .bss           0x00000000        0x0 c:/program files (x86)/microchip/xc32/v2.30/bin/bin/../../lib/gcc/pic32mx/4.8.3/../../../../pic32mx/lib\pic32_software_reset.o
 .reginfo       0x00000000       0x18 c:/program files (x86)/microchip/xc32/v2.30/bin/bin/../../lib/gcc/pic32mx/4.8.3/../../../../pic32mx/lib\pic32_software_reset.o
 .text          0x00000000        0x0 c:/program files (x86)/microchip/xc32/v2.30/bin/bin/../../lib/gcc/pic32mx/4.8.3/../../../../pic32mx/lib/./proc/32MX470F512L\processor.o
 .data          0x00000000        0x0 c:/program files (x86)/microchip/xc32/v2.30/bin/bin/../../lib/gcc/pic32mx/4.8.3/../../../../pic32mx/lib/./proc/32MX470F512L\processor.o
 .bss           0x00000000        0x0 c:/program files (x86)/microchip/xc32/v2.30/bin/bin/../../lib/gcc/pic32mx/4.8.3/../../../../pic32mx/lib/./proc/32MX470F512L\processor.o
 .reginfo       0x00000000       0x18 c:/program files (x86)/microchip/xc32/v2.30/bin/bin/../../lib/gcc/pic32mx/4.8.3/../../../../pic32mx/lib/./proc/32MX470F512L\processor.o
 .data          0x00000000        0x0 c:/program files (x86)/microchip/xc32/v2.30/bin/bin/../../lib/gcc/pic32mx/4.8.3/../../../../pic32mx/lib\libpic32.a(memcpy.o)
 .bss           0x00000000        0x0 c:/program files (x86)/microchip/xc32/v2.30/bin/bin/../../lib/gcc/pic32mx/4.8.3/../../../../pic32mx/lib\libpic32.a(memcpy.o)
 .reginfo       0x00000000       0x18 c:/program files (x86)/microchip/xc32/v2.30/bin/bin/../../lib/gcc/pic32mx/4.8.3/../../../../pic32mx/lib\libpic32.a(memcpy.o)
 .data          0x00000000        0x0 c:/program files (x86)/microchip/xc32/v2.30/bin/bin/../../lib/gcc/pic32mx/4.8.3/../../../../pic32mx/lib\libpic32.a(memset.o)
 .bss           0x00000000        0x0 c:/program files (x86)/microchip/xc32/v2.30/bin/bin/../../lib/gcc/pic32mx/4.8.3/../../../../pic32mx/lib\libpic32.a(memset.o)
 .reginfo       0x00000000       0x18 c:/program files (x86)/microchip/xc32/v2.30/bin/bin/../../lib/gcc/pic32mx/4.8.3/../../../../pic32mx/lib\libpic32.a(memset.o)
 .text          0x00000000        0x0 c:/program files (x86)/microchip/xc32/v2.30/bin/bin/../../lib/gcc/pic32mx/4.8.3/../../../../pic32mx/lib\libpic32.a(default-bootstrap-exception-handler.o)
 .data          0x00000000        0x0 c:/program files (x86)/microchip/xc32/v2.30/bin/bin/../../lib/gcc/pic32mx/4.8.3/../../../../pic32mx/lib\libpic32.a(default-bootstrap-exception-handler.o)
 .bss           0x00000000        0x0 c:/program files (x86)/microchip/xc32/v2.30/bin/bin/../../lib/gcc/pic32mx/4.8.3/../../../../pic32mx/lib\libpic32.a(default-bootstrap-exception-handler.o)
 .reginfo       0x00000000       0x18 c:/program files (x86)/microchip/xc32/v2.30/bin/bin/../../lib/gcc/pic32mx/4.8.3/../../../../pic32mx/lib\libpic32.a(default-bootstrap-exception-handler.o)
 .text          0x00000000        0x0 c:/program files (x86)/microchip/xc32/v2.30/bin/bin/../../lib/gcc/pic32mx/4.8.3/../../../../pic32mx/lib\libpic32.a(default-on-reset.o)
 .data          0x00000000        0x0 c:/program files (x86)/microchip/xc32/v2.30/bin/bin/../../lib/gcc/pic32mx/4.8.3/../../../../pic32mx/lib\libpic32.a(default-on-reset.o)
 .bss           0x00000000        0x0 c:/program files (x86)/microchip/xc32/v2.30/bin/bin/../../lib/gcc/pic32mx/4.8.3/../../../../pic32mx/lib\libpic32.a(default-on-reset.o)
 .reginfo       0x00000000       0x18 c:/program files (x86)/microchip/xc32/v2.30/bin/bin/../../lib/gcc/pic32mx/4.8.3/../../../../pic32mx/lib\libpic32.a(default-on-reset.o)
 .text          0x00000000        0x0 c:/program files (x86)/microchip/xc32/v2.30/bin/bin/../../lib/gcc/pic32mx/4.8.3/../../../../pic32mx/lib\libpic32.a(default-on-bootstrap.o)
 .data          0x00000000        0x0 c:/program files (x86)/microchip/xc32/v2.30/bin/bin/../../lib/gcc/pic32mx/4.8.3/../../../../pic32mx/lib\libpic32.a(default-on-bootstrap.o)
 .bss           0x00000000        0x0 c:/program files (x86)/microchip/xc32/v2.30/bin/bin/../../lib/gcc/pic32mx/4.8.3/../../../../pic32mx/lib\libpic32.a(default-on-bootstrap.o)
 .reginfo       0x00000000       0x18 c:/program files (x86)/microchip/xc32/v2.30/bin/bin/../../lib/gcc/pic32mx/4.8.3/../../../../pic32mx/lib\libpic32.a(default-on-bootstrap.o)
 .data          0x00000000        0x0 c:/program files (x86)/microchip/xc32/v2.30/bin/bin/../../lib/gcc/pic32mx/4.8.3/../../../../pic32mx/lib\libpic32.a(default-nmi-handler.o)
 .bss           0x00000000        0x0 c:/program files (x86)/microchip/xc32/v2.30/bin/bin/../../lib/gcc/pic32mx/4.8.3/../../../../pic32mx/lib\libpic32.a(default-nmi-handler.o)
 .reginfo       0x00000000       0x18 c:/program files (x86)/microchip/xc32/v2.30/bin/bin/../../lib/gcc/pic32mx/4.8.3/../../../../pic32mx/lib\libpic32.a(default-nmi-handler.o)
 .text          0x00000000        0x0 c:/program files (x86)/microchip/xc32/v2.30/bin/bin/../../lib/gcc/pic32mx/4.8.3/../../../../pic32mx/lib\libpic32.a(xc32_uart.o)
 .data          0x00000000        0x0 c:/program files (x86)/microchip/xc32/v2.30/bin/bin/../../lib/gcc/pic32mx/4.8.3/../../../../pic32mx/lib\libpic32.a(xc32_uart.o)
 .bss           0x00000000        0x0 c:/program files (x86)/microchip/xc32/v2.30/bin/bin/../../lib/gcc/pic32mx/4.8.3/../../../../pic32mx/lib\libpic32.a(xc32_uart.o)
 .reginfo       0x00000000       0x18 c:/program files (x86)/microchip/xc32/v2.30/bin/bin/../../lib/gcc/pic32mx/4.8.3/../../../../pic32mx/lib\libpic32.a(xc32_uart.o)
 .data          0x00000000        0x0 c:/program files (x86)/microchip/xc32/v2.30/bin/bin/../../lib/gcc/pic32mx/4.8.3/../../../../pic32mx/lib\libpic32.a(pic32_data_init.o)
 .bss           0x00000000        0x0 c:/program files (x86)/microchip/xc32/v2.30/bin/bin/../../lib/gcc/pic32mx/4.8.3/../../../../pic32mx/lib\libpic32.a(pic32_data_init.o)
 .reginfo       0x00000000       0x18 c:/program files (x86)/microchip/xc32/v2.30/bin/bin/../../lib/gcc/pic32mx/4.8.3/../../../../pic32mx/lib\libpic32.a(pic32_data_init.o)
 .text          0x00000000        0x0 c:/program files (x86)/microchip/xc32/v2.30/bin/bin/../../lib/gcc/pic32mx/4.8.3/../../../../pic32mx/lib\libpic32.a(general-exception.o)
 .data          0x00000000        0x0 c:/program files (x86)/microchip/xc32/v2.30/bin/bin/../../lib/gcc/pic32mx/4.8.3/../../../../pic32mx/lib\libpic32.a(general-exception.o)
 .bss           0x00000000        0x0 c:/program files (x86)/microchip/xc32/v2.30/bin/bin/../../lib/gcc/pic32mx/4.8.3/../../../../pic32mx/lib\libpic32.a(general-exception.o)
 .reginfo       0x00000000       0x18 c:/program files (x86)/microchip/xc32/v2.30/bin/bin/../../lib/gcc/pic32mx/4.8.3/../../../../pic32mx/lib\libpic32.a(general-exception.o)
 .text          0x00000000        0x0 c:/program files (x86)/microchip/xc32/v2.30/bin/bin/../../lib/gcc/pic32mx/4.8.3/../../../../pic32mx/lib\libpic32.a(vector0.o)
 .data          0x00000000        0x0 c:/program files (x86)/microchip/xc32/v2.30/bin/bin/../../lib/gcc/pic32mx/4.8.3/../../../../pic32mx/lib\libpic32.a(vector0.o)
 .bss           0x00000000        0x0 c:/program files (x86)/microchip/xc32/v2.30/bin/bin/../../lib/gcc/pic32mx/4.8.3/../../../../pic32mx/lib\libpic32.a(vector0.o)
 .reginfo       0x00000000       0x18 c:/program files (x86)/microchip/xc32/v2.30/bin/bin/../../lib/gcc/pic32mx/4.8.3/../../../../pic32mx/lib\libpic32.a(vector0.o)
 .text          0x00000000        0x0 c:/program files (x86)/microchip/xc32/v2.30/bin/bin/../../lib/gcc/pic32mx/4.8.3/../../../../pic32mx/lib\libpic32.a(vector2.o)
 .data          0x00000000        0x0 c:/program files (x86)/microchip/xc32/v2.30/bin/bin/../../lib/gcc/pic32mx/4.8.3/../../../../pic32mx/lib\libpic32.a(vector2.o)
 .bss           0x00000000        0x0 c:/program files (x86)/microchip/xc32/v2.30/bin/bin/../../lib/gcc/pic32mx/4.8.3/../../../../pic32mx/lib\libpic32.a(vector2.o)
 .reginfo       0x00000000       0x18 c:/program files (x86)/microchip/xc32/v2.30/bin/bin/../../lib/gcc/pic32mx/4.8.3/../../../../pic32mx/lib\libpic32.a(vector2.o)
 .text          0x00000000        0x0 c:/program files (x86)/microchip/xc32/v2.30/bin/bin/../../lib/gcc/pic32mx/4.8.3/../../../../pic32mx/lib\libpic32.a(vector3.o)
 .data          0x00000000        0x0 c:/program files (x86)/microchip/xc32/v2.30/bin/bin/../../lib/gcc/pic32mx/4.8.3/../../../../pic32mx/lib\libpic32.a(vector3.o)
 .bss           0x00000000        0x0 c:/program files (x86)/microchip/xc32/v2.30/bin/bin/../../lib/gcc/pic32mx/4.8.3/../../../../pic32mx/lib\libpic32.a(vector3.o)
 .reginfo       0x00000000       0x18 c:/program files (x86)/microchip/xc32/v2.30/bin/bin/../../lib/gcc/pic32mx/4.8.3/../../../../pic32mx/lib\libpic32.a(vector3.o)
 .text          0x00000000        0x0 c:/program files (x86)/microchip/xc32/v2.30/bin/bin/../../lib/gcc/pic32mx/4.8.3/../../../../pic32mx/lib\libpic32.a(vector5.o)
 .data          0x00000000        0x0 c:/program files (x86)/microchip/xc32/v2.30/bin/bin/../../lib/gcc/pic32mx/4.8.3/../../../../pic32mx/lib\libpic32.a(vector5.o)
 .bss           0x00000000        0x0 c:/program files (x86)/microchip/xc32/v2.30/bin/bin/../../lib/gcc/pic32mx/4.8.3/../../../../pic32mx/lib\libpic32.a(vector5.o)
 .reginfo       0x00000000       0x18 c:/program files (x86)/microchip/xc32/v2.30/bin/bin/../../lib/gcc/pic32mx/4.8.3/../../../../pic32mx/lib\libpic32.a(vector5.o)
 .text          0x00000000        0x0 c:/program files (x86)/microchip/xc32/v2.30/bin/bin/../../lib/gcc/pic32mx/4.8.3/../../../../pic32mx/lib\libpic32.a(vector6.o)
 .data          0x00000000        0x0 c:/program files (x86)/microchip/xc32/v2.30/bin/bin/../../lib/gcc/pic32mx/4.8.3/../../../../pic32mx/lib\libpic32.a(vector6.o)
 .bss           0x00000000        0x0 c:/program files (x86)/microchip/xc32/v2.30/bin/bin/../../lib/gcc/pic32mx/4.8.3/../../../../pic32mx/lib\libpic32.a(vector6.o)
 .reginfo       0x00000000       0x18 c:/program files (x86)/microchip/xc32/v2.30/bin/bin/../../lib/gcc/pic32mx/4.8.3/../../../../pic32mx/lib\libpic32.a(vector6.o)
 .text          0x00000000        0x0 c:/program files (x86)/microchip/xc32/v2.30/bin/bin/../../lib/gcc/pic32mx/4.8.3/../../../../pic32mx/lib\libpic32.a(vector7.o)
 .data          0x00000000        0x0 c:/program files (x86)/microchip/xc32/v2.30/bin/bin/../../lib/gcc/pic32mx/4.8.3/../../../../pic32mx/lib\libpic32.a(vector7.o)
 .bss           0x00000000        0x0 c:/program files (x86)/microchip/xc32/v2.30/bin/bin/../../lib/gcc/pic32mx/4.8.3/../../../../pic32mx/lib\libpic32.a(vector7.o)
 .reginfo       0x00000000       0x18 c:/program files (x86)/microchip/xc32/v2.30/bin/bin/../../lib/gcc/pic32mx/4.8.3/../../../../pic32mx/lib\libpic32.a(vector7.o)
 .text          0x00000000        0x0 c:/program files (x86)/microchip/xc32/v2.30/bin/bin/../../lib/gcc/pic32mx/4.8.3/../../../../pic32mx/lib\libpic32.a(vector8.o)
 .data          0x00000000        0x0 c:/program files (x86)/microchip/xc32/v2.30/bin/bin/../../lib/gcc/pic32mx/4.8.3/../../../../pic32mx/lib\libpic32.a(vector8.o)
 .bss           0x00000000        0x0 c:/program files (x86)/microchip/xc32/v2.30/bin/bin/../../lib/gcc/pic32mx/4.8.3/../../../../pic32mx/lib\libpic32.a(vector8.o)
 .reginfo       0x00000000       0x18 c:/program files (x86)/microchip/xc32/v2.30/bin/bin/../../lib/gcc/pic32mx/4.8.3/../../../../pic32mx/lib\libpic32.a(vector8.o)
 .text          0x00000000        0x0 c:/program files (x86)/microchip/xc32/v2.30/bin/bin/../../lib/gcc/pic32mx/4.8.3/../../../../pic32mx/lib\libpic32.a(vector9.o)
 .data          0x00000000        0x0 c:/program files (x86)/microchip/xc32/v2.30/bin/bin/../../lib/gcc/pic32mx/4.8.3/../../../../pic32mx/lib\libpic32.a(vector9.o)
 .bss           0x00000000        0x0 c:/program files (x86)/microchip/xc32/v2.30/bin/bin/../../lib/gcc/pic32mx/4.8.3/../../../../pic32mx/lib\libpic32.a(vector9.o)
 .reginfo       0x00000000       0x18 c:/program files (x86)/microchip/xc32/v2.30/bin/bin/../../lib/gcc/pic32mx/4.8.3/../../../../pic32mx/lib\libpic32.a(vector9.o)
 .text          0x00000000        0x0 c:/program files (x86)/microchip/xc32/v2.30/bin/bin/../../lib/gcc/pic32mx/4.8.3/../../../../pic32mx/lib\libpic32.a(vector10.o)
 .data          0x00000000        0x0 c:/program files (x86)/microchip/xc32/v2.30/bin/bin/../../lib/gcc/pic32mx/4.8.3/../../../../pic32mx/lib\libpic32.a(vector10.o)
 .bss           0x00000000        0x0 c:/program files (x86)/microchip/xc32/v2.30/bin/bin/../../lib/gcc/pic32mx/4.8.3/../../../../pic32mx/lib\libpic32.a(vector10.o)
 .reginfo       0x00000000       0x18 c:/program files (x86)/microchip/xc32/v2.30/bin/bin/../../lib/gcc/pic32mx/4.8.3/../../../../pic32mx/lib\libpic32.a(vector10.o)
 .text          0x00000000        0x0 c:/program files (x86)/microchip/xc32/v2.30/bin/bin/../../lib/gcc/pic32mx/4.8.3/../../../../pic32mx/lib\libpic32.a(vector11.o)
 .data          0x00000000        0x0 c:/program files (x86)/microchip/xc32/v2.30/bin/bin/../../lib/gcc/pic32mx/4.8.3/../../../../pic32mx/lib\libpic32.a(vector11.o)
 .bss           0x00000000        0x0 c:/program files (x86)/microchip/xc32/v2.30/bin/bin/../../lib/gcc/pic32mx/4.8.3/../../../../pic32mx/lib\libpic32.a(vector11.o)
 .reginfo       0x00000000       0x18 c:/program files (x86)/microchip/xc32/v2.30/bin/bin/../../lib/gcc/pic32mx/4.8.3/../../../../pic32mx/lib\libpic32.a(vector11.o)
 .text          0x00000000        0x0 c:/program files (x86)/microchip/xc32/v2.30/bin/bin/../../lib/gcc/pic32mx/4.8.3/../../../../pic32mx/lib\libpic32.a(vector12.o)
 .data          0x00000000        0x0 c:/program files (x86)/microchip/xc32/v2.30/bin/bin/../../lib/gcc/pic32mx/4.8.3/../../../../pic32mx/lib\libpic32.a(vector12.o)
 .bss           0x00000000        0x0 c:/program files (x86)/microchip/xc32/v2.30/bin/bin/../../lib/gcc/pic32mx/4.8.3/../../../../pic32mx/lib\libpic32.a(vector12.o)
 .reginfo       0x00000000       0x18 c:/program files (x86)/microchip/xc32/v2.30/bin/bin/../../lib/gcc/pic32mx/4.8.3/../../../../pic32mx/lib\libpic32.a(vector12.o)
 .text          0x00000000        0x0 c:/program files (x86)/microchip/xc32/v2.30/bin/bin/../../lib/gcc/pic32mx/4.8.3/../../../../pic32mx/lib\libpic32.a(vector13.o)
 .data          0x00000000        0x0 c:/program files (x86)/microchip/xc32/v2.30/bin/bin/../../lib/gcc/pic32mx/4.8.3/../../../../pic32mx/lib\libpic32.a(vector13.o)
 .bss           0x00000000        0x0 c:/program files (x86)/microchip/xc32/v2.30/bin/bin/../../lib/gcc/pic32mx/4.8.3/../../../../pic32mx/lib\libpic32.a(vector13.o)
 .reginfo       0x00000000       0x18 c:/program files (x86)/microchip/xc32/v2.30/bin/bin/../../lib/gcc/pic32mx/4.8.3/../../../../pic32mx/lib\libpic32.a(vector13.o)
 .text          0x00000000        0x0 c:/program files (x86)/microchip/xc32/v2.30/bin/bin/../../lib/gcc/pic32mx/4.8.3/../../../../pic32mx/lib\libpic32.a(vector14.o)
 .data          0x00000000        0x0 c:/program files (x86)/microchip/xc32/v2.30/bin/bin/../../lib/gcc/pic32mx/4.8.3/../../../../pic32mx/lib\libpic32.a(vector14.o)
 .bss           0x00000000        0x0 c:/program files (x86)/microchip/xc32/v2.30/bin/bin/../../lib/gcc/pic32mx/4.8.3/../../../../pic32mx/lib\libpic32.a(vector14.o)
 .reginfo       0x00000000       0x18 c:/program files (x86)/microchip/xc32/v2.30/bin/bin/../../lib/gcc/pic32mx/4.8.3/../../../../pic32mx/lib\libpic32.a(vector14.o)
 .text          0x00000000        0x0 c:/program files (x86)/microchip/xc32/v2.30/bin/bin/../../lib/gcc/pic32mx/4.8.3/../../../../pic32mx/lib\libpic32.a(vector15.o)
 .data          0x00000000        0x0 c:/program files (x86)/microchip/xc32/v2.30/bin/bin/../../lib/gcc/pic32mx/4.8.3/../../../../pic32mx/lib\libpic32.a(vector15.o)
 .bss           0x00000000        0x0 c:/program files (x86)/microchip/xc32/v2.30/bin/bin/../../lib/gcc/pic32mx/4.8.3/../../../../pic32mx/lib\libpic32.a(vector15.o)
 .reginfo       0x00000000       0x18 c:/program files (x86)/microchip/xc32/v2.30/bin/bin/../../lib/gcc/pic32mx/4.8.3/../../../../pic32mx/lib\libpic32.a(vector15.o)
 .text          0x00000000        0x0 c:/program files (x86)/microchip/xc32/v2.30/bin/bin/../../lib/gcc/pic32mx/4.8.3/../../../../pic32mx/lib\libpic32.a(vector16.o)
 .data          0x00000000        0x0 c:/program files (x86)/microchip/xc32/v2.30/bin/bin/../../lib/gcc/pic32mx/4.8.3/../../../../pic32mx/lib\libpic32.a(vector16.o)
 .bss           0x00000000        0x0 c:/program files (x86)/microchip/xc32/v2.30/bin/bin/../../lib/gcc/pic32mx/4.8.3/../../../../pic32mx/lib\libpic32.a(vector16.o)
 .reginfo       0x00000000       0x18 c:/program files (x86)/microchip/xc32/v2.30/bin/bin/../../lib/gcc/pic32mx/4.8.3/../../../../pic32mx/lib\libpic32.a(vector16.o)
 .text          0x00000000        0x0 c:/program files (x86)/microchip/xc32/v2.30/bin/bin/../../lib/gcc/pic32mx/4.8.3/../../../../pic32mx/lib\libpic32.a(vector17.o)
 .data          0x00000000        0x0 c:/program files (x86)/microchip/xc32/v2.30/bin/bin/../../lib/gcc/pic32mx/4.8.3/../../../../pic32mx/lib\libpic32.a(vector17.o)
 .bss           0x00000000        0x0 c:/program files (x86)/microchip/xc32/v2.30/bin/bin/../../lib/gcc/pic32mx/4.8.3/../../../../pic32mx/lib\libpic32.a(vector17.o)
 .reginfo       0x00000000       0x18 c:/program files (x86)/microchip/xc32/v2.30/bin/bin/../../lib/gcc/pic32mx/4.8.3/../../../../pic32mx/lib\libpic32.a(vector17.o)
 .text          0x00000000        0x0 c:/program files (x86)/microchip/xc32/v2.30/bin/bin/../../lib/gcc/pic32mx/4.8.3/../../../../pic32mx/lib\libpic32.a(vector18.o)
 .data          0x00000000        0x0 c:/program files (x86)/microchip/xc32/v2.30/bin/bin/../../lib/gcc/pic32mx/4.8.3/../../../../pic32mx/lib\libpic32.a(vector18.o)
 .bss           0x00000000        0x0 c:/program files (x86)/microchip/xc32/v2.30/bin/bin/../../lib/gcc/pic32mx/4.8.3/../../../../pic32mx/lib\libpic32.a(vector18.o)
 .reginfo       0x00000000       0x18 c:/program files (x86)/microchip/xc32/v2.30/bin/bin/../../lib/gcc/pic32mx/4.8.3/../../../../pic32mx/lib\libpic32.a(vector18.o)
 .text          0x00000000        0x0 c:/program files (x86)/microchip/xc32/v2.30/bin/bin/../../lib/gcc/pic32mx/4.8.3/../../../../pic32mx/lib\libpic32.a(vector19.o)
 .data          0x00000000        0x0 c:/program files (x86)/microchip/xc32/v2.30/bin/bin/../../lib/gcc/pic32mx/4.8.3/../../../../pic32mx/lib\libpic32.a(vector19.o)
 .bss           0x00000000        0x0 c:/program files (x86)/microchip/xc32/v2.30/bin/bin/../../lib/gcc/pic32mx/4.8.3/../../../../pic32mx/lib\libpic32.a(vector19.o)
 .reginfo       0x00000000       0x18 c:/program files (x86)/microchip/xc32/v2.30/bin/bin/../../lib/gcc/pic32mx/4.8.3/../../../../pic32mx/lib\libpic32.a(vector19.o)
 .text          0x00000000        0x0 c:/program files (x86)/microchip/xc32/v2.30/bin/bin/../../lib/gcc/pic32mx/4.8.3/../../../../pic32mx/lib\libpic32.a(vector20.o)
 .data          0x00000000        0x0 c:/program files (x86)/microchip/xc32/v2.30/bin/bin/../../lib/gcc/pic32mx/4.8.3/../../../../pic32mx/lib\libpic32.a(vector20.o)
 .bss           0x00000000        0x0 c:/program files (x86)/microchip/xc32/v2.30/bin/bin/../../lib/gcc/pic32mx/4.8.3/../../../../pic32mx/lib\libpic32.a(vector20.o)
 .reginfo       0x00000000       0x18 c:/program files (x86)/microchip/xc32/v2.30/bin/bin/../../lib/gcc/pic32mx/4.8.3/../../../../pic32mx/lib\libpic32.a(vector20.o)
 .text          0x00000000        0x0 c:/program files (x86)/microchip/xc32/v2.30/bin/bin/../../lib/gcc/pic32mx/4.8.3/../../../../pic32mx/lib\libpic32.a(vector21.o)
 .data          0x00000000        0x0 c:/program files (x86)/microchip/xc32/v2.30/bin/bin/../../lib/gcc/pic32mx/4.8.3/../../../../pic32mx/lib\libpic32.a(vector21.o)
 .bss           0x00000000        0x0 c:/program files (x86)/microchip/xc32/v2.30/bin/bin/../../lib/gcc/pic32mx/4.8.3/../../../../pic32mx/lib\libpic32.a(vector21.o)
 .reginfo       0x00000000       0x18 c:/program files (x86)/microchip/xc32/v2.30/bin/bin/../../lib/gcc/pic32mx/4.8.3/../../../../pic32mx/lib\libpic32.a(vector21.o)
 .text          0x00000000        0x0 c:/program files (x86)/microchip/xc32/v2.30/bin/bin/../../lib/gcc/pic32mx/4.8.3/../../../../pic32mx/lib\libpic32.a(vector22.o)
 .data          0x00000000        0x0 c:/program files (x86)/microchip/xc32/v2.30/bin/bin/../../lib/gcc/pic32mx/4.8.3/../../../../pic32mx/lib\libpic32.a(vector22.o)
 .bss           0x00000000        0x0 c:/program files (x86)/microchip/xc32/v2.30/bin/bin/../../lib/gcc/pic32mx/4.8.3/../../../../pic32mx/lib\libpic32.a(vector22.o)
 .reginfo       0x00000000       0x18 c:/program files (x86)/microchip/xc32/v2.30/bin/bin/../../lib/gcc/pic32mx/4.8.3/../../../../pic32mx/lib\libpic32.a(vector22.o)
 .text          0x00000000        0x0 c:/program files (x86)/microchip/xc32/v2.30/bin/bin/../../lib/gcc/pic32mx/4.8.3/../../../../pic32mx/lib\libpic32.a(vector23.o)
 .data          0x00000000        0x0 c:/program files (x86)/microchip/xc32/v2.30/bin/bin/../../lib/gcc/pic32mx/4.8.3/../../../../pic32mx/lib\libpic32.a(vector23.o)
 .bss           0x00000000        0x0 c:/program files (x86)/microchip/xc32/v2.30/bin/bin/../../lib/gcc/pic32mx/4.8.3/../../../../pic32mx/lib\libpic32.a(vector23.o)
 .reginfo       0x00000000       0x18 c:/program files (x86)/microchip/xc32/v2.30/bin/bin/../../lib/gcc/pic32mx/4.8.3/../../../../pic32mx/lib\libpic32.a(vector23.o)
 .text          0x00000000        0x0 c:/program files (x86)/microchip/xc32/v2.30/bin/bin/../../lib/gcc/pic32mx/4.8.3/../../../../pic32mx/lib\libpic32.a(vector24.o)
 .data          0x00000000        0x0 c:/program files (x86)/microchip/xc32/v2.30/bin/bin/../../lib/gcc/pic32mx/4.8.3/../../../../pic32mx/lib\libpic32.a(vector24.o)
 .bss           0x00000000        0x0 c:/program files (x86)/microchip/xc32/v2.30/bin/bin/../../lib/gcc/pic32mx/4.8.3/../../../../pic32mx/lib\libpic32.a(vector24.o)
 .reginfo       0x00000000       0x18 c:/program files (x86)/microchip/xc32/v2.30/bin/bin/../../lib/gcc/pic32mx/4.8.3/../../../../pic32mx/lib\libpic32.a(vector24.o)
 .text          0x00000000        0x0 c:/program files (x86)/microchip/xc32/v2.30/bin/bin/../../lib/gcc/pic32mx/4.8.3/../../../../pic32mx/lib\libpic32.a(vector25.o)
 .data          0x00000000        0x0 c:/program files (x86)/microchip/xc32/v2.30/bin/bin/../../lib/gcc/pic32mx/4.8.3/../../../../pic32mx/lib\libpic32.a(vector25.o)
 .bss           0x00000000        0x0 c:/program files (x86)/microchip/xc32/v2.30/bin/bin/../../lib/gcc/pic32mx/4.8.3/../../../../pic32mx/lib\libpic32.a(vector25.o)
 .reginfo       0x00000000       0x18 c:/program files (x86)/microchip/xc32/v2.30/bin/bin/../../lib/gcc/pic32mx/4.8.3/../../../../pic32mx/lib\libpic32.a(vector25.o)
 .text          0x00000000        0x0 c:/program files (x86)/microchip/xc32/v2.30/bin/bin/../../lib/gcc/pic32mx/4.8.3/../../../../pic32mx/lib\libpic32.a(vector26.o)
 .data          0x00000000        0x0 c:/program files (x86)/microchip/xc32/v2.30/bin/bin/../../lib/gcc/pic32mx/4.8.3/../../../../pic32mx/lib\libpic32.a(vector26.o)
 .bss           0x00000000        0x0 c:/program files (x86)/microchip/xc32/v2.30/bin/bin/../../lib/gcc/pic32mx/4.8.3/../../../../pic32mx/lib\libpic32.a(vector26.o)
 .reginfo       0x00000000       0x18 c:/program files (x86)/microchip/xc32/v2.30/bin/bin/../../lib/gcc/pic32mx/4.8.3/../../../../pic32mx/lib\libpic32.a(vector26.o)
 .text          0x00000000        0x0 c:/program files (x86)/microchip/xc32/v2.30/bin/bin/../../lib/gcc/pic32mx/4.8.3/../../../../pic32mx/lib\libpic32.a(vector27.o)
 .data          0x00000000        0x0 c:/program files (x86)/microchip/xc32/v2.30/bin/bin/../../lib/gcc/pic32mx/4.8.3/../../../../pic32mx/lib\libpic32.a(vector27.o)
 .bss           0x00000000        0x0 c:/program files (x86)/microchip/xc32/v2.30/bin/bin/../../lib/gcc/pic32mx/4.8.3/../../../../pic32mx/lib\libpic32.a(vector27.o)
 .reginfo       0x00000000       0x18 c:/program files (x86)/microchip/xc32/v2.30/bin/bin/../../lib/gcc/pic32mx/4.8.3/../../../../pic32mx/lib\libpic32.a(vector27.o)
 .text          0x00000000        0x0 c:/program files (x86)/microchip/xc32/v2.30/bin/bin/../../lib/gcc/pic32mx/4.8.3/../../../../pic32mx/lib\libpic32.a(vector28.o)
 .data          0x00000000        0x0 c:/program files (x86)/microchip/xc32/v2.30/bin/bin/../../lib/gcc/pic32mx/4.8.3/../../../../pic32mx/lib\libpic32.a(vector28.o)
 .bss           0x00000000        0x0 c:/program files (x86)/microchip/xc32/v2.30/bin/bin/../../lib/gcc/pic32mx/4.8.3/../../../../pic32mx/lib\libpic32.a(vector28.o)
 .reginfo       0x00000000       0x18 c:/program files (x86)/microchip/xc32/v2.30/bin/bin/../../lib/gcc/pic32mx/4.8.3/../../../../pic32mx/lib\libpic32.a(vector28.o)
 .text          0x00000000        0x0 c:/program files (x86)/microchip/xc32/v2.30/bin/bin/../../lib/gcc/pic32mx/4.8.3/../../../../pic32mx/lib\libpic32.a(vector29.o)
 .data          0x00000000        0x0 c:/program files (x86)/microchip/xc32/v2.30/bin/bin/../../lib/gcc/pic32mx/4.8.3/../../../../pic32mx/lib\libpic32.a(vector29.o)
 .bss           0x00000000        0x0 c:/program files (x86)/microchip/xc32/v2.30/bin/bin/../../lib/gcc/pic32mx/4.8.3/../../../../pic32mx/lib\libpic32.a(vector29.o)
 .reginfo       0x00000000       0x18 c:/program files (x86)/microchip/xc32/v2.30/bin/bin/../../lib/gcc/pic32mx/4.8.3/../../../../pic32mx/lib\libpic32.a(vector29.o)
 .text          0x00000000        0x0 c:/program files (x86)/microchip/xc32/v2.30/bin/bin/../../lib/gcc/pic32mx/4.8.3/../../../../pic32mx/lib\libpic32.a(vector30.o)
 .data          0x00000000        0x0 c:/program files (x86)/microchip/xc32/v2.30/bin/bin/../../lib/gcc/pic32mx/4.8.3/../../../../pic32mx/lib\libpic32.a(vector30.o)
 .bss           0x00000000        0x0 c:/program files (x86)/microchip/xc32/v2.30/bin/bin/../../lib/gcc/pic32mx/4.8.3/../../../../pic32mx/lib\libpic32.a(vector30.o)
 .reginfo       0x00000000       0x18 c:/program files (x86)/microchip/xc32/v2.30/bin/bin/../../lib/gcc/pic32mx/4.8.3/../../../../pic32mx/lib\libpic32.a(vector30.o)
 .text          0x00000000        0x0 c:/program files (x86)/microchip/xc32/v2.30/bin/bin/../../lib/gcc/pic32mx/4.8.3/../../../../pic32mx/lib\libpic32.a(vector31.o)
 .data          0x00000000        0x0 c:/program files (x86)/microchip/xc32/v2.30/bin/bin/../../lib/gcc/pic32mx/4.8.3/../../../../pic32mx/lib\libpic32.a(vector31.o)
 .bss           0x00000000        0x0 c:/program files (x86)/microchip/xc32/v2.30/bin/bin/../../lib/gcc/pic32mx/4.8.3/../../../../pic32mx/lib\libpic32.a(vector31.o)
 .reginfo       0x00000000       0x18 c:/program files (x86)/microchip/xc32/v2.30/bin/bin/../../lib/gcc/pic32mx/4.8.3/../../../../pic32mx/lib\libpic32.a(vector31.o)
 .text          0x00000000        0x0 c:/program files (x86)/microchip/xc32/v2.30/bin/bin/../../lib/gcc/pic32mx/4.8.3/../../../../pic32mx/lib\libpic32.a(vector32.o)
 .data          0x00000000        0x0 c:/program files (x86)/microchip/xc32/v2.30/bin/bin/../../lib/gcc/pic32mx/4.8.3/../../../../pic32mx/lib\libpic32.a(vector32.o)
 .bss           0x00000000        0x0 c:/program files (x86)/microchip/xc32/v2.30/bin/bin/../../lib/gcc/pic32mx/4.8.3/../../../../pic32mx/lib\libpic32.a(vector32.o)
 .reginfo       0x00000000       0x18 c:/program files (x86)/microchip/xc32/v2.30/bin/bin/../../lib/gcc/pic32mx/4.8.3/../../../../pic32mx/lib\libpic32.a(vector32.o)
 .text          0x00000000        0x0 c:/program files (x86)/microchip/xc32/v2.30/bin/bin/../../lib/gcc/pic32mx/4.8.3/../../../../pic32mx/lib\libpic32.a(vector33.o)
 .data          0x00000000        0x0 c:/program files (x86)/microchip/xc32/v2.30/bin/bin/../../lib/gcc/pic32mx/4.8.3/../../../../pic32mx/lib\libpic32.a(vector33.o)
 .bss           0x00000000        0x0 c:/program files (x86)/microchip/xc32/v2.30/bin/bin/../../lib/gcc/pic32mx/4.8.3/../../../../pic32mx/lib\libpic32.a(vector33.o)
 .reginfo       0x00000000       0x18 c:/program files (x86)/microchip/xc32/v2.30/bin/bin/../../lib/gcc/pic32mx/4.8.3/../../../../pic32mx/lib\libpic32.a(vector33.o)
 .text          0x00000000        0x0 c:/program files (x86)/microchip/xc32/v2.30/bin/bin/../../lib/gcc/pic32mx/4.8.3/../../../../pic32mx/lib\libpic32.a(vector34.o)
 .data          0x00000000        0x0 c:/program files (x86)/microchip/xc32/v2.30/bin/bin/../../lib/gcc/pic32mx/4.8.3/../../../../pic32mx/lib\libpic32.a(vector34.o)
 .bss           0x00000000        0x0 c:/program files (x86)/microchip/xc32/v2.30/bin/bin/../../lib/gcc/pic32mx/4.8.3/../../../../pic32mx/lib\libpic32.a(vector34.o)
 .reginfo       0x00000000       0x18 c:/program files (x86)/microchip/xc32/v2.30/bin/bin/../../lib/gcc/pic32mx/4.8.3/../../../../pic32mx/lib\libpic32.a(vector34.o)
 .text          0x00000000        0x0 c:/program files (x86)/microchip/xc32/v2.30/bin/bin/../../lib/gcc/pic32mx/4.8.3/../../../../pic32mx/lib\libpic32.a(vector35.o)
 .data          0x00000000        0x0 c:/program files (x86)/microchip/xc32/v2.30/bin/bin/../../lib/gcc/pic32mx/4.8.3/../../../../pic32mx/lib\libpic32.a(vector35.o)
 .bss           0x00000000        0x0 c:/program files (x86)/microchip/xc32/v2.30/bin/bin/../../lib/gcc/pic32mx/4.8.3/../../../../pic32mx/lib\libpic32.a(vector35.o)
 .reginfo       0x00000000       0x18 c:/program files (x86)/microchip/xc32/v2.30/bin/bin/../../lib/gcc/pic32mx/4.8.3/../../../../pic32mx/lib\libpic32.a(vector35.o)
 .text          0x00000000        0x0 c:/program files (x86)/microchip/xc32/v2.30/bin/bin/../../lib/gcc/pic32mx/4.8.3/../../../../pic32mx/lib\libpic32.a(vector36.o)
 .data          0x00000000        0x0 c:/program files (x86)/microchip/xc32/v2.30/bin/bin/../../lib/gcc/pic32mx/4.8.3/../../../../pic32mx/lib\libpic32.a(vector36.o)
 .bss           0x00000000        0x0 c:/program files (x86)/microchip/xc32/v2.30/bin/bin/../../lib/gcc/pic32mx/4.8.3/../../../../pic32mx/lib\libpic32.a(vector36.o)
 .reginfo       0x00000000       0x18 c:/program files (x86)/microchip/xc32/v2.30/bin/bin/../../lib/gcc/pic32mx/4.8.3/../../../../pic32mx/lib\libpic32.a(vector36.o)
 .text          0x00000000        0x0 c:/program files (x86)/microchip/xc32/v2.30/bin/bin/../../lib/gcc/pic32mx/4.8.3/../../../../pic32mx/lib\libpic32.a(vector37.o)
 .data          0x00000000        0x0 c:/program files (x86)/microchip/xc32/v2.30/bin/bin/../../lib/gcc/pic32mx/4.8.3/../../../../pic32mx/lib\libpic32.a(vector37.o)
 .bss           0x00000000        0x0 c:/program files (x86)/microchip/xc32/v2.30/bin/bin/../../lib/gcc/pic32mx/4.8.3/../../../../pic32mx/lib\libpic32.a(vector37.o)
 .reginfo       0x00000000       0x18 c:/program files (x86)/microchip/xc32/v2.30/bin/bin/../../lib/gcc/pic32mx/4.8.3/../../../../pic32mx/lib\libpic32.a(vector37.o)
 .text          0x00000000        0x0 c:/program files (x86)/microchip/xc32/v2.30/bin/bin/../../lib/gcc/pic32mx/4.8.3/../../../../pic32mx/lib\libpic32.a(vector38.o)
 .data          0x00000000        0x0 c:/program files (x86)/microchip/xc32/v2.30/bin/bin/../../lib/gcc/pic32mx/4.8.3/../../../../pic32mx/lib\libpic32.a(vector38.o)
 .bss           0x00000000        0x0 c:/program files (x86)/microchip/xc32/v2.30/bin/bin/../../lib/gcc/pic32mx/4.8.3/../../../../pic32mx/lib\libpic32.a(vector38.o)
 .reginfo       0x00000000       0x18 c:/program files (x86)/microchip/xc32/v2.30/bin/bin/../../lib/gcc/pic32mx/4.8.3/../../../../pic32mx/lib\libpic32.a(vector38.o)
 .text          0x00000000        0x0 c:/program files (x86)/microchip/xc32/v2.30/bin/bin/../../lib/gcc/pic32mx/4.8.3/../../../../pic32mx/lib\libpic32.a(vector39.o)
 .data          0x00000000        0x0 c:/program files (x86)/microchip/xc32/v2.30/bin/bin/../../lib/gcc/pic32mx/4.8.3/../../../../pic32mx/lib\libpic32.a(vector39.o)
 .bss           0x00000000        0x0 c:/program files (x86)/microchip/xc32/v2.30/bin/bin/../../lib/gcc/pic32mx/4.8.3/../../../../pic32mx/lib\libpic32.a(vector39.o)
 .reginfo       0x00000000       0x18 c:/program files (x86)/microchip/xc32/v2.30/bin/bin/../../lib/gcc/pic32mx/4.8.3/../../../../pic32mx/lib\libpic32.a(vector39.o)
 .text          0x00000000        0x0 c:/program files (x86)/microchip/xc32/v2.30/bin/bin/../../lib/gcc/pic32mx/4.8.3/../../../../pic32mx/lib\libpic32.a(vector40.o)
 .data          0x00000000        0x0 c:/program files (x86)/microchip/xc32/v2.30/bin/bin/../../lib/gcc/pic32mx/4.8.3/../../../../pic32mx/lib\libpic32.a(vector40.o)
 .bss           0x00000000        0x0 c:/program files (x86)/microchip/xc32/v2.30/bin/bin/../../lib/gcc/pic32mx/4.8.3/../../../../pic32mx/lib\libpic32.a(vector40.o)
 .reginfo       0x00000000       0x18 c:/program files (x86)/microchip/xc32/v2.30/bin/bin/../../lib/gcc/pic32mx/4.8.3/../../../../pic32mx/lib\libpic32.a(vector40.o)
 .text          0x00000000        0x0 c:/program files (x86)/microchip/xc32/v2.30/bin/bin/../../lib/gcc/pic32mx/4.8.3/../../../../pic32mx/lib\libpic32.a(vector41.o)
 .data          0x00000000        0x0 c:/program files (x86)/microchip/xc32/v2.30/bin/bin/../../lib/gcc/pic32mx/4.8.3/../../../../pic32mx/lib\libpic32.a(vector41.o)
 .bss           0x00000000        0x0 c:/program files (x86)/microchip/xc32/v2.30/bin/bin/../../lib/gcc/pic32mx/4.8.3/../../../../pic32mx/lib\libpic32.a(vector41.o)
 .reginfo       0x00000000       0x18 c:/program files (x86)/microchip/xc32/v2.30/bin/bin/../../lib/gcc/pic32mx/4.8.3/../../../../pic32mx/lib\libpic32.a(vector41.o)
 .text          0x00000000        0x0 c:/program files (x86)/microchip/xc32/v2.30/bin/bin/../../lib/gcc/pic32mx/4.8.3/../../../../pic32mx/lib\libpic32.a(vector42.o)
 .data          0x00000000        0x0 c:/program files (x86)/microchip/xc32/v2.30/bin/bin/../../lib/gcc/pic32mx/4.8.3/../../../../pic32mx/lib\libpic32.a(vector42.o)
 .bss           0x00000000        0x0 c:/program files (x86)/microchip/xc32/v2.30/bin/bin/../../lib/gcc/pic32mx/4.8.3/../../../../pic32mx/lib\libpic32.a(vector42.o)
 .reginfo       0x00000000       0x18 c:/program files (x86)/microchip/xc32/v2.30/bin/bin/../../lib/gcc/pic32mx/4.8.3/../../../../pic32mx/lib\libpic32.a(vector42.o)
 .text          0x00000000        0x0 c:/program files (x86)/microchip/xc32/v2.30/bin/bin/../../lib/gcc/pic32mx/4.8.3/../../../../pic32mx/lib\libpic32.a(vector43.o)
 .data          0x00000000        0x0 c:/program files (x86)/microchip/xc32/v2.30/bin/bin/../../lib/gcc/pic32mx/4.8.3/../../../../pic32mx/lib\libpic32.a(vector43.o)
 .bss           0x00000000        0x0 c:/program files (x86)/microchip/xc32/v2.30/bin/bin/../../lib/gcc/pic32mx/4.8.3/../../../../pic32mx/lib\libpic32.a(vector43.o)
 .reginfo       0x00000000       0x18 c:/program files (x86)/microchip/xc32/v2.30/bin/bin/../../lib/gcc/pic32mx/4.8.3/../../../../pic32mx/lib\libpic32.a(vector43.o)
 .text          0x00000000        0x0 c:/program files (x86)/microchip/xc32/v2.30/bin/bin/../../lib/gcc/pic32mx/4.8.3/../../../../pic32mx/lib\libpic32.a(vector44.o)
 .data          0x00000000        0x0 c:/program files (x86)/microchip/xc32/v2.30/bin/bin/../../lib/gcc/pic32mx/4.8.3/../../../../pic32mx/lib\libpic32.a(vector44.o)
 .bss           0x00000000        0x0 c:/program files (x86)/microchip/xc32/v2.30/bin/bin/../../lib/gcc/pic32mx/4.8.3/../../../../pic32mx/lib\libpic32.a(vector44.o)
 .reginfo       0x00000000       0x18 c:/program files (x86)/microchip/xc32/v2.30/bin/bin/../../lib/gcc/pic32mx/4.8.3/../../../../pic32mx/lib\libpic32.a(vector44.o)
 .text          0x00000000        0x0 c:/program files (x86)/microchip/xc32/v2.30/bin/bin/../../lib/gcc/pic32mx/4.8.3/../../../../pic32mx/lib\libpic32.a(vector45.o)
 .data          0x00000000        0x0 c:/program files (x86)/microchip/xc32/v2.30/bin/bin/../../lib/gcc/pic32mx/4.8.3/../../../../pic32mx/lib\libpic32.a(vector45.o)
 .bss           0x00000000        0x0 c:/program files (x86)/microchip/xc32/v2.30/bin/bin/../../lib/gcc/pic32mx/4.8.3/../../../../pic32mx/lib\libpic32.a(vector45.o)
 .reginfo       0x00000000       0x18 c:/program files (x86)/microchip/xc32/v2.30/bin/bin/../../lib/gcc/pic32mx/4.8.3/../../../../pic32mx/lib\libpic32.a(vector45.o)
 .text          0x00000000        0x0 c:/program files (x86)/microchip/xc32/v2.30/bin/bin/../../lib/gcc/pic32mx/4.8.3/../../../../pic32mx/lib\libpic32.a(defaultinterrupt.o)
 .data          0x00000000        0x0 c:/program files (x86)/microchip/xc32/v2.30/bin/bin/../../lib/gcc/pic32mx/4.8.3/../../../../pic32mx/lib\libpic32.a(defaultinterrupt.o)
 .bss           0x00000000        0x0 c:/program files (x86)/microchip/xc32/v2.30/bin/bin/../../lib/gcc/pic32mx/4.8.3/../../../../pic32mx/lib\libpic32.a(defaultinterrupt.o)
 .reginfo       0x00000000       0x18 c:/program files (x86)/microchip/xc32/v2.30/bin/bin/../../lib/gcc/pic32mx/4.8.3/../../../../pic32mx/lib\libpic32.a(defaultinterrupt.o)
 .text          0x00000000        0x0 c:/program files (x86)/microchip/xc32/v2.30/bin/bin/../../lib/gcc/pic32mx/4.8.3/../../../../pic32mx/lib\libc.a(putchar.o)
 .data          0x00000000        0x0 c:/program files (x86)/microchip/xc32/v2.30/bin/bin/../../lib/gcc/pic32mx/4.8.3/../../../../pic32mx/lib\libc.a(putchar.o)
 .bss           0x00000000        0x0 c:/program files (x86)/microchip/xc32/v2.30/bin/bin/../../lib/gcc/pic32mx/4.8.3/../../../../pic32mx/lib\libc.a(putchar.o)
 .reginfo       0x00000000       0x18 c:/program files (x86)/microchip/xc32/v2.30/bin/bin/../../lib/gcc/pic32mx/4.8.3/../../../../pic32mx/lib\libc.a(putchar.o)
 .text          0x00000000        0x0 c:/program files (x86)/microchip/xc32/v2.30/bin/bin/../../lib/gcc/pic32mx/4.8.3/../../../../pic32mx/lib\libc.a(printf_fF.eo)
 .data          0x00000000        0x0 c:/program files (x86)/microchip/xc32/v2.30/bin/bin/../../lib/gcc/pic32mx/4.8.3/../../../../pic32mx/lib\libc.a(printf_fF.eo)
 .bss           0x00000000        0x0 c:/program files (x86)/microchip/xc32/v2.30/bin/bin/../../lib/gcc/pic32mx/4.8.3/../../../../pic32mx/lib\libc.a(printf_fF.eo)
 .reginfo       0x00000000       0x18 c:/program files (x86)/microchip/xc32/v2.30/bin/bin/../../lib/gcc/pic32mx/4.8.3/../../../../pic32mx/lib\libc.a(printf_fF.eo)
 .text          0x00000000        0x0 c:/program files (x86)/microchip/xc32/v2.30/bin/bin/../../lib/gcc/pic32mx/4.8.3/../../../../pic32mx/lib\libc.a(printf_s.eo)
 .data          0x00000000        0x0 c:/program files (x86)/microchip/xc32/v2.30/bin/bin/../../lib/gcc/pic32mx/4.8.3/../../../../pic32mx/lib\libc.a(printf_s.eo)
 .bss           0x00000000        0x0 c:/program files (x86)/microchip/xc32/v2.30/bin/bin/../../lib/gcc/pic32mx/4.8.3/../../../../pic32mx/lib\libc.a(printf_s.eo)
 .reginfo       0x00000000       0x18 c:/program files (x86)/microchip/xc32/v2.30/bin/bin/../../lib/gcc/pic32mx/4.8.3/../../../../pic32mx/lib\libc.a(printf_s.eo)
 .text          0x00000000        0x0 c:/program files (x86)/microchip/xc32/v2.30/bin/bin/../../lib/gcc/pic32mx/4.8.3/../../../../pic32mx/lib\libc.a(_iob.o)
 .reginfo       0x00000000       0x18 c:/program files (x86)/microchip/xc32/v2.30/bin/bin/../../lib/gcc/pic32mx/4.8.3/../../../../pic32mx/lib\libc.a(_iob.o)
 .text          0x00000000        0x0 c:/program files (x86)/microchip/xc32/v2.30/bin/bin/../../lib/gcc/pic32mx/4.8.3/../../../../pic32mx/lib\libc.a(_fputc_simple.o)
 .data          0x00000000        0x0 c:/program files (x86)/microchip/xc32/v2.30/bin/bin/../../lib/gcc/pic32mx/4.8.3/../../../../pic32mx/lib\libc.a(_fputc_simple.o)
 .bss           0x00000000        0x0 c:/program files (x86)/microchip/xc32/v2.30/bin/bin/../../lib/gcc/pic32mx/4.8.3/../../../../pic32mx/lib\libc.a(_fputc_simple.o)
 .reginfo       0x00000000       0x18 c:/program files (x86)/microchip/xc32/v2.30/bin/bin/../../lib/gcc/pic32mx/4.8.3/../../../../pic32mx/lib\libc.a(_fputc_simple.o)
 .text          0x00000000        0x0 c:/program files (x86)/microchip/xc32/v2.30/bin/bin/../../lib/gcc/pic32mx/4.8.3/../../../../pic32mx/lib\libc.a(_flsbuf_simple.o)
 .data          0x00000000        0x0 c:/program files (x86)/microchip/xc32/v2.30/bin/bin/../../lib/gcc/pic32mx/4.8.3/../../../../pic32mx/lib\libc.a(_flsbuf_simple.o)
 .bss           0x00000000        0x0 c:/program files (x86)/microchip/xc32/v2.30/bin/bin/../../lib/gcc/pic32mx/4.8.3/../../../../pic32mx/lib\libc.a(_flsbuf_simple.o)
 .reginfo       0x00000000       0x18 c:/program files (x86)/microchip/xc32/v2.30/bin/bin/../../lib/gcc/pic32mx/4.8.3/../../../../pic32mx/lib\libc.a(_flsbuf_simple.o)
 .text          0x00000000        0x0 c:/program files (x86)/microchip/xc32/v2.30/bin/bin/../../lib/gcc/pic32mx/4.8.3/../../../../pic32mx/lib\libc.a(ctype.o)
 .data          0x00000000        0x0 c:/program files (x86)/microchip/xc32/v2.30/bin/bin/../../lib/gcc/pic32mx/4.8.3/../../../../pic32mx/lib\libc.a(ctype.o)
 .bss           0x00000000        0x0 c:/program files (x86)/microchip/xc32/v2.30/bin/bin/../../lib/gcc/pic32mx/4.8.3/../../../../pic32mx/lib\libc.a(ctype.o)
 .reginfo       0x00000000       0x18 c:/program files (x86)/microchip/xc32/v2.30/bin/bin/../../lib/gcc/pic32mx/4.8.3/../../../../pic32mx/lib\libc.a(ctype.o)
 .text          0x00000000        0x0 c:/program files (x86)/microchip/xc32/v2.30/bin/bin/../../lib/gcc/pic32mx/4.8.3/../../../../pic32mx/lib\libc.a(ldpowers.o)
 .data          0x00000000        0x0 c:/program files (x86)/microchip/xc32/v2.30/bin/bin/../../lib/gcc/pic32mx/4.8.3/../../../../pic32mx/lib\libc.a(ldpowers.o)
 .bss           0x00000000        0x0 c:/program files (x86)/microchip/xc32/v2.30/bin/bin/../../lib/gcc/pic32mx/4.8.3/../../../../pic32mx/lib\libc.a(ldpowers.o)
 .reginfo       0x00000000       0x18 c:/program files (x86)/microchip/xc32/v2.30/bin/bin/../../lib/gcc/pic32mx/4.8.3/../../../../pic32mx/lib\libc.a(ldpowers.o)
 .text          0x00000000        0x0 c:/program files (x86)/microchip/xc32/v2.30/bin/bin/../../lib/gcc/pic32mx/4.8.3/../../../../pic32mx/lib\libc.a(doprnt_fFs.eo)
 .data          0x00000000        0x0 c:/program files (x86)/microchip/xc32/v2.30/bin/bin/../../lib/gcc/pic32mx/4.8.3/../../../../pic32mx/lib\libc.a(doprnt_fFs.eo)
 .bss           0x00000000        0x0 c:/program files (x86)/microchip/xc32/v2.30/bin/bin/../../lib/gcc/pic32mx/4.8.3/../../../../pic32mx/lib\libc.a(doprnt_fFs.eo)
 .reginfo       0x00000000       0x18 c:/program files (x86)/microchip/xc32/v2.30/bin/bin/../../lib/gcc/pic32mx/4.8.3/../../../../pic32mx/lib\libc.a(doprnt_fFs.eo)
 .text          0x00000000        0x0 c:/program files (x86)/microchip/xc32/v2.30/bin/bin/../../lib/gcc/pic32mx/4.8.3/../../../../pic32mx/lib\libm.a(dpfrexp.o)
 .data          0x00000000        0x0 c:/program files (x86)/microchip/xc32/v2.30/bin/bin/../../lib/gcc/pic32mx/4.8.3/../../../../pic32mx/lib\libm.a(dpfrexp.o)
 .bss           0x00000000        0x0 c:/program files (x86)/microchip/xc32/v2.30/bin/bin/../../lib/gcc/pic32mx/4.8.3/../../../../pic32mx/lib\libm.a(dpfrexp.o)
 .reginfo       0x00000000       0x18 c:/program files (x86)/microchip/xc32/v2.30/bin/bin/../../lib/gcc/pic32mx/4.8.3/../../../../pic32mx/lib\libm.a(dpfrexp.o)
 .text          0x00000000        0x0 c:/program files (x86)/microchip/xc32/v2.30/bin/bin/../../lib/gcc/pic32mx/4.8.3/../../../../pic32mx/lib\libm.a(dp32div.o)
 .data          0x00000000        0x0 c:/program files (x86)/microchip/xc32/v2.30/bin/bin/../../lib/gcc/pic32mx/4.8.3/../../../../pic32mx/lib\libm.a(dp32div.o)
 .bss           0x00000000        0x0 c:/program files (x86)/microchip/xc32/v2.30/bin/bin/../../lib/gcc/pic32mx/4.8.3/../../../../pic32mx/lib\libm.a(dp32div.o)
 .reginfo       0x00000000       0x18 c:/program files (x86)/microchip/xc32/v2.30/bin/bin/../../lib/gcc/pic32mx/4.8.3/../../../../pic32mx/lib\libm.a(dp32div.o)
 .text          0x00000000        0x0 c:/program files (x86)/microchip/xc32/v2.30/bin/bin/../../lib/gcc/pic32mx/4.8.3/../../../../pic32mx/lib\libm.a(dp32mul.o)
 .data          0x00000000        0x0 c:/program files (x86)/microchip/xc32/v2.30/bin/bin/../../lib/gcc/pic32mx/4.8.3/../../../../pic32mx/lib\libm.a(dp32mul.o)
 .bss           0x00000000        0x0 c:/program files (x86)/microchip/xc32/v2.30/bin/bin/../../lib/gcc/pic32mx/4.8.3/../../../../pic32mx/lib\libm.a(dp32mul.o)
 .reginfo       0x00000000       0x18 c:/program files (x86)/microchip/xc32/v2.30/bin/bin/../../lib/gcc/pic32mx/4.8.3/../../../../pic32mx/lib\libm.a(dp32mul.o)
 .text          0x00000000        0x0 c:/program files (x86)/microchip/xc32/v2.30/bin/bin/../../lib/gcc/pic32mx/4.8.3/../../../../pic32mx/lib\libm.a(dp32subadd.o)
 .data          0x00000000        0x0 c:/program files (x86)/microchip/xc32/v2.30/bin/bin/../../lib/gcc/pic32mx/4.8.3/../../../../pic32mx/lib\libm.a(dp32subadd.o)
 .bss           0x00000000        0x0 c:/program files (x86)/microchip/xc32/v2.30/bin/bin/../../lib/gcc/pic32mx/4.8.3/../../../../pic32mx/lib\libm.a(dp32subadd.o)
 .reginfo       0x00000000       0x18 c:/program files (x86)/microchip/xc32/v2.30/bin/bin/../../lib/gcc/pic32mx/4.8.3/../../../../pic32mx/lib\libm.a(dp32subadd.o)
 .text          0x00000000        0x0 c:/program files (x86)/microchip/xc32/v2.30/bin/bin/../../lib/gcc/pic32mx/4.8.3/../../../../pic32mx/lib\libm.a(dpcmp.o)
 .data          0x00000000        0x0 c:/program files (x86)/microchip/xc32/v2.30/bin/bin/../../lib/gcc/pic32mx/4.8.3/../../../../pic32mx/lib\libm.a(dpcmp.o)
 .bss           0x00000000        0x0 c:/program files (x86)/microchip/xc32/v2.30/bin/bin/../../lib/gcc/pic32mx/4.8.3/../../../../pic32mx/lib\libm.a(dpcmp.o)
 .reginfo       0x00000000       0x18 c:/program files (x86)/microchip/xc32/v2.30/bin/bin/../../lib/gcc/pic32mx/4.8.3/../../../../pic32mx/lib\libm.a(dpcmp.o)
 .text          0x00000000        0x0 c:/program files (x86)/microchip/xc32/v2.30/bin/bin/../../lib/gcc/pic32mx/4.8.3/../../../../pic32mx/lib\libm.a(fp32mul.o)
 .data          0x00000000        0x0 c:/program files (x86)/microchip/xc32/v2.30/bin/bin/../../lib/gcc/pic32mx/4.8.3/../../../../pic32mx/lib\libm.a(fp32mul.o)
 .bss           0x00000000        0x0 c:/program files (x86)/microchip/xc32/v2.30/bin/bin/../../lib/gcc/pic32mx/4.8.3/../../../../pic32mx/lib\libm.a(fp32mul.o)
 .reginfo       0x00000000       0x18 c:/program files (x86)/microchip/xc32/v2.30/bin/bin/../../lib/gcc/pic32mx/4.8.3/../../../../pic32mx/lib\libm.a(fp32mul.o)
 .text          0x00000000        0x0 c:/program files (x86)/microchip/xc32/v2.30/bin/bin/../../lib/gcc/pic32mx/4.8.3/../../../../pic32mx/lib\libm.a(fpcmp.o)
 .data          0x00000000        0x0 c:/program files (x86)/microchip/xc32/v2.30/bin/bin/../../lib/gcc/pic32mx/4.8.3/../../../../pic32mx/lib\libm.a(fpcmp.o)
 .bss           0x00000000        0x0 c:/program files (x86)/microchip/xc32/v2.30/bin/bin/../../lib/gcc/pic32mx/4.8.3/../../../../pic32mx/lib\libm.a(fpcmp.o)
 .reginfo       0x00000000       0x18 c:/program files (x86)/microchip/xc32/v2.30/bin/bin/../../lib/gcc/pic32mx/4.8.3/../../../../pic32mx/lib\libm.a(fpcmp.o)
 .text          0x00000000        0x0 c:/program files (x86)/microchip/xc32/v2.30/bin/bin/../../lib/gcc/pic32mx/4.8.3/../../../../pic32mx/lib\libm.a(fptodp.o)
 .data          0x00000000        0x0 c:/program files (x86)/microchip/xc32/v2.30/bin/bin/../../lib/gcc/pic32mx/4.8.3/../../../../pic32mx/lib\libm.a(fptodp.o)
 .bss           0x00000000        0x0 c:/program files (x86)/microchip/xc32/v2.30/bin/bin/../../lib/gcc/pic32mx/4.8.3/../../../../pic32mx/lib\libm.a(fptodp.o)
 .reginfo       0x00000000       0x18 c:/program files (x86)/microchip/xc32/v2.30/bin/bin/../../lib/gcc/pic32mx/4.8.3/../../../../pic32mx/lib\libm.a(fptodp.o)
 .text          0x00000000        0x0 c:/program files (x86)/microchip/xc32/v2.30/bin/bin/../../lib/gcc/pic32mx/4.8.3/../../../../pic32mx/lib\libm.a(sitofp.o)
 .data          0x00000000        0x0 c:/program files (x86)/microchip/xc32/v2.30/bin/bin/../../lib/gcc/pic32mx/4.8.3/../../../../pic32mx/lib\libm.a(sitofp.o)
 .bss           0x00000000        0x0 c:/program files (x86)/microchip/xc32/v2.30/bin/bin/../../lib/gcc/pic32mx/4.8.3/../../../../pic32mx/lib\libm.a(sitofp.o)
 .reginfo       0x00000000       0x18 c:/program files (x86)/microchip/xc32/v2.30/bin/bin/../../lib/gcc/pic32mx/4.8.3/../../../../pic32mx/lib\libm.a(sitofp.o)
 .text          0x00000000        0x0 c:/program files (x86)/microchip/xc32/v2.30/bin/bin/../../lib/gcc/pic32mx/4.8.3/../../../../pic32mx/lib\libe.a(_fixunsdfdi.o)
 .data          0x00000000        0x0 c:/program files (x86)/microchip/xc32/v2.30/bin/bin/../../lib/gcc/pic32mx/4.8.3/../../../../pic32mx/lib\libe.a(_fixunsdfdi.o)
 .bss           0x00000000        0x0 c:/program files (x86)/microchip/xc32/v2.30/bin/bin/../../lib/gcc/pic32mx/4.8.3/../../../../pic32mx/lib\libe.a(_fixunsdfdi.o)
 .reginfo       0x00000000       0x18 c:/program files (x86)/microchip/xc32/v2.30/bin/bin/../../lib/gcc/pic32mx/4.8.3/../../../../pic32mx/lib\libe.a(_fixunsdfdi.o)
 .text          0x00000000        0x0 c:/program files (x86)/microchip/xc32/v2.30/bin/bin/../../lib/gcc/pic32mx/4.8.3/../../../../pic32mx/lib\libe.a(_orderdf2.o)
 .data          0x00000000        0x0 c:/program files (x86)/microchip/xc32/v2.30/bin/bin/../../lib/gcc/pic32mx/4.8.3/../../../../pic32mx/lib\libe.a(_orderdf2.o)
 .bss           0x00000000        0x0 c:/program files (x86)/microchip/xc32/v2.30/bin/bin/../../lib/gcc/pic32mx/4.8.3/../../../../pic32mx/lib\libe.a(_orderdf2.o)
 .reginfo       0x00000000       0x18 c:/program files (x86)/microchip/xc32/v2.30/bin/bin/../../lib/gcc/pic32mx/4.8.3/../../../../pic32mx/lib\libe.a(_orderdf2.o)
 .text          0x00000000        0x0 c:/program files (x86)/microchip/xc32/v2.30/bin/bin/../../lib/gcc/pic32mx/4.8.3/../../../../pic32mx/lib\libe.a(_fixdfdi.o)
 .data          0x00000000        0x0 c:/program files (x86)/microchip/xc32/v2.30/bin/bin/../../lib/gcc/pic32mx/4.8.3/../../../../pic32mx/lib\libe.a(_fixdfdi.o)
 .bss           0x00000000        0x0 c:/program files (x86)/microchip/xc32/v2.30/bin/bin/../../lib/gcc/pic32mx/4.8.3/../../../../pic32mx/lib\libe.a(_fixdfdi.o)
 .reginfo       0x00000000       0x18 c:/program files (x86)/microchip/xc32/v2.30/bin/bin/../../lib/gcc/pic32mx/4.8.3/../../../../pic32mx/lib\libe.a(_fixdfdi.o)
 .data          0x00000000        0x0 c:/program files (x86)/microchip/xc32/v2.30/bin/bin/../../lib/gcc/pic32mx/4.8.3\libgcc.a(_floatundidf.o)
 .bss           0x00000000        0x0 c:/program files (x86)/microchip/xc32/v2.30/bin/bin/../../lib/gcc/pic32mx/4.8.3\libgcc.a(_floatundidf.o)
 .reginfo       0x00000000       0x18 c:/program files (x86)/microchip/xc32/v2.30/bin/bin/../../lib/gcc/pic32mx/4.8.3\libgcc.a(_floatundidf.o)
 .data          0x00000000        0x0 c:/program files (x86)/microchip/xc32/v2.30/bin/bin/../../lib/gcc/pic32mx/4.8.3\libgcc.a(_udivdi3.o)
 .bss           0x00000000        0x0 c:/program files (x86)/microchip/xc32/v2.30/bin/bin/../../lib/gcc/pic32mx/4.8.3\libgcc.a(_udivdi3.o)
 .reginfo       0x00000000       0x18 c:/program files (x86)/microchip/xc32/v2.30/bin/bin/../../lib/gcc/pic32mx/4.8.3\libgcc.a(_udivdi3.o)
 .data          0x00000000        0x0 c:/program files (x86)/microchip/xc32/v2.30/bin/bin/../../lib/gcc/pic32mx/4.8.3\libgcc.a(_umoddi3.o)
 .bss           0x00000000        0x0 c:/program files (x86)/microchip/xc32/v2.30/bin/bin/../../lib/gcc/pic32mx/4.8.3\libgcc.a(_umoddi3.o)
 .reginfo       0x00000000       0x18 c:/program files (x86)/microchip/xc32/v2.30/bin/bin/../../lib/gcc/pic32mx/4.8.3\libgcc.a(_umoddi3.o)
 .data          0x00000000        0x0 c:/program files (x86)/microchip/xc32/v2.30/bin/bin/../../lib/gcc/pic32mx/4.8.3\libgcc.a(floatunsidf.o)
 .bss           0x00000000        0x0 c:/program files (x86)/microchip/xc32/v2.30/bin/bin/../../lib/gcc/pic32mx/4.8.3\libgcc.a(floatunsidf.o)
 .reginfo       0x00000000       0x18 c:/program files (x86)/microchip/xc32/v2.30/bin/bin/../../lib/gcc/pic32mx/4.8.3\libgcc.a(floatunsidf.o)
 .text          0x00000000        0x0 c:/program files (x86)/microchip/xc32/v2.30/bin/bin/../../lib/gcc/pic32mx/4.8.3/../../../../pic32mx/lib\libpic32.a(write.o)
 .data          0x00000000        0x0 c:/program files (x86)/microchip/xc32/v2.30/bin/bin/../../lib/gcc/pic32mx/4.8.3/../../../../pic32mx/lib\libpic32.a(write.o)
 .bss           0x00000000        0x0 c:/program files (x86)/microchip/xc32/v2.30/bin/bin/../../lib/gcc/pic32mx/4.8.3/../../../../pic32mx/lib\libpic32.a(write.o)
 .reginfo       0x00000000       0x18 c:/program files (x86)/microchip/xc32/v2.30/bin/bin/../../lib/gcc/pic32mx/4.8.3/../../../../pic32mx/lib\libpic32.a(write.o)
 .text          0x00000000        0x0 c:/program files (x86)/microchip/xc32/v2.30/bin/bin/../../lib/gcc/pic32mx/4.8.3/../../../../pic32mx/lib\libpic32.a(_mon_putc.o)
 .data          0x00000000        0x0 c:/program files (x86)/microchip/xc32/v2.30/bin/bin/../../lib/gcc/pic32mx/4.8.3/../../../../pic32mx/lib\libpic32.a(_mon_putc.o)
 .bss           0x00000000        0x0 c:/program files (x86)/microchip/xc32/v2.30/bin/bin/../../lib/gcc/pic32mx/4.8.3/../../../../pic32mx/lib\libpic32.a(_mon_putc.o)
 .reginfo       0x00000000       0x18 c:/program files (x86)/microchip/xc32/v2.30/bin/bin/../../lib/gcc/pic32mx/4.8.3/../../../../pic32mx/lib\libpic32.a(_mon_putc.o)
 .text          0x00000000        0x0 c:/program files (x86)/microchip/xc32/v2.30/bin/bin/../../lib/gcc/pic32mx/4.8.3/../../../../pic32mx/lib\libm.a(litodp.o)
 .data          0x00000000        0x0 c:/program files (x86)/microchip/xc32/v2.30/bin/bin/../../lib/gcc/pic32mx/4.8.3/../../../../pic32mx/lib\libm.a(litodp.o)
 .bss           0x00000000        0x0 c:/program files (x86)/microchip/xc32/v2.30/bin/bin/../../lib/gcc/pic32mx/4.8.3/../../../../pic32mx/lib\libm.a(litodp.o)
 .reginfo       0x00000000       0x18 c:/program files (x86)/microchip/xc32/v2.30/bin/bin/../../lib/gcc/pic32mx/4.8.3/../../../../pic32mx/lib\libm.a(litodp.o)

Memory Configuration

Name             Origin             Length             Attributes
kseg0_program_mem 0x9d000000         0x00080000         xr
kseg0_boot_mem   0x9fc00490         0x00000970
exception_mem    0x9fc01000         0x00001000
kseg1_boot_mem   0xbfc00000         0x00000490
debug_exec_mem   0xbfc02000         0x00000ff0
config3          0xbfc02ff0         0x00000004
config2          0xbfc02ff4         0x00000004
config1          0xbfc02ff8         0x00000004
config0          0xbfc02ffc         0x00000004
kseg1_data_mem   0xa0000000         0x00020000         w !x
sfrs             0xbf800000         0x00100000
configsfrs       0xbfc02ff0         0x00000010
*default*        0x00000000         0xffffffff

Linker script and memory map

LOAD c:/program files (x86)/microchip/xc32/v2.30/bin/bin/../../lib/gcc/pic32mx/4.8.3/../../../../pic32mx/lib\debug-exception-return.o
LOAD build/pic32mx_sk/production/_ext/1764187882/bsp.o
LOAD build/pic32mx_sk/production/_ext/1458591747/sys_clk_pic32mx.o
LOAD build/pic32mx_sk/production/_ext/374885412/sys_devcon.o
LOAD build/pic32mx_sk/production/_ext/374885412/sys_devcon_pic32mx.o
LOAD build/pic32mx_sk/production/_ext/1255054701/sys_ports_static.o
LOAD build/pic32mx_sk/production/_ext/351744058/system_init.o
LOAD build/pic32mx_sk/production/_ext/351744058/system_interrupt.o
LOAD build/pic32mx_sk/production/_ext/351744058/system_exceptions.o
LOAD build/pic32mx_sk/production/_ext/351744058/system_tasks.o
LOAD build/pic32mx_sk/production/_ext/351744058/system_interrupt_a.o
LOAD build/pic32mx_sk/production/_ext/351744058/rtos_hooks.o
LOAD build/pic32mx_sk/production/_ext/1360937237/app.o
LOAD build/pic32mx_sk/production/_ext/1360937237/app1.o
LOAD build/pic32mx_sk/production/_ext/1360937237/app2.o
LOAD build/pic32mx_sk/production/_ext/1360937237/app3.o
LOAD build/pic32mx_sk/production/_ext/1360937237/main.o
LOAD build/pic32mx_sk/production/_ext/2067596619/osal_freertos.o
LOAD build/pic32mx_sk/production/_ext/711155467/sys_int_pic32.o
LOAD build/pic32mx_sk/production/_ext/427228813/heap_1.o
LOAD build/pic32mx_sk/production/_ext/789006650/port.o
LOAD build/pic32mx_sk/production/_ext/789006650/port_asm.o
LOAD build/pic32mx_sk/production/_ext/161854096/croutine.o
LOAD build/pic32mx_sk/production/_ext/161854096/list.o
LOAD build/pic32mx_sk/production/_ext/161854096/queue.o
LOAD build/pic32mx_sk/production/_ext/161854096/tasks.o
LOAD build/pic32mx_sk/production/_ext/161854096/timers.o
LOAD build/pic32mx_sk/production/_ext/161854096/event_groups.o
LOAD build/pic32mx_sk/production/_ext/161854096/stream_buffer.o
LOAD build/pic32mx_sk/production/_ext/1360937237/io_setup.o
LOAD ..\..\..\..\..\..\bin\framework\peripheral\PIC32MX795F512L_peripherals.a
LOAD ..\..\..\..\..\..\..\..\shiro019_accelerometer_spi.X\dist\default\production\shiro019_accelerometer_spi.X.a
                0x00000001                __MPLAB_BUILD = 0x1
                0x00000000                _min_heap_size = 0x0
LOAD C:\Users\shiro019\AppData\Local\Temp\ccoS15Bg.o
LOAD C:\Users\shiro019\AppData\Local\Temp\ccO49Ijp.o
LOAD C:\Users\shiro019\AppData\Local\Temp\ccgo7Q8F.o
LOAD c:/program files (x86)/microchip/xc32/v2.30/bin/bin/../../lib/gcc/pic32mx/4.8.3/../../../../pic32mx/lib\pic32_software_reset.o
                0x00000400                PROVIDE (_min_stack_size, 0x400)
START GROUP
LOAD c:/program files (x86)/microchip/xc32/v2.30/bin/bin/../../lib/gcc/pic32mx/4.8.3/../../../../pic32mx/lib/./proc/32MX470F512L\processor.o
END GROUP
START GROUP
LOAD libmchp_peripheral.a
END GROUP
START GROUP
LOAD libmchp_peripheral_32MX470F512L.a
END GROUP
                0x00000001                PROVIDE (_vector_spacing, 0x1)
                0x9fc01000                PROVIDE (_ebase_address, 0x9fc01000)
                0xbfc00000                _RESET_ADDR = 0xbfc00000
                0xbfc00380                _BEV_EXCPT_ADDR = 0xbfc00380
                0xbfc00480                _DBG_EXCPT_ADDR = 0xbfc00480
                0xbfc02000                _DBG_CODE_ADDR = 0xbfc02000
                0x00000ff0                _DBG_CODE_SIZE = 0xff0
                0x9fc01180                _GEN_EXCPT_ADDR = (_ebase_address + 0x180)

.config_BFC02FF0
                0xbfc02ff0        0x4
 *(.config_BFC02FF0)
 .config_BFC02FF0
                0xbfc02ff0        0x4 build/pic32mx_sk/production/_ext/1360937237/io_setup.o

.config_BFC02FF4
                0xbfc02ff4        0x4
 *(.config_BFC02FF4)
 .config_BFC02FF4
                0xbfc02ff4        0x4 build/pic32mx_sk/production/_ext/1360937237/io_setup.o

.config_BFC02FF8
                0xbfc02ff8        0x4
 *(.config_BFC02FF8)
 .config_BFC02FF8
                0xbfc02ff8        0x4 build/pic32mx_sk/production/_ext/1360937237/io_setup.o

.config_BFC02FFC
                0xbfc02ffc        0x4
 *(.config_BFC02FFC)
 .config_BFC02FFC
                0xbfc02ffc        0x4 build/pic32mx_sk/production/_ext/1360937237/io_setup.o
                0xbfc02000                PROVIDE (_DBG_CODE_ADDR, 0xbfc02000)
                0x00000ff0                PROVIDE (_DBG_CODE_SIZE, 0xff0)

.reset          0xbfc00000      0x19c
 *(.reset)
 .reset         0xbfc00000        0x8 C:\Users\shiro019\AppData\Local\Temp\ccoS15Bg.o
                0xbfc00000                _reset
 *(.reset.startup)
 .reset.startup
                0xbfc00008      0x194 C:\Users\shiro019\AppData\Local\Temp\ccoS15Bg.o
                0xbfc00008                _startup

.bev_excpt      0xbfc00380       0x10
 *(.bev_handler)
 .bev_handler   0xbfc00380       0x10 C:\Users\shiro019\AppData\Local\Temp\ccoS15Bg.o

.dbg_excpt      0xbfc00480        0x0
                0xbfc00480                . = (. + DEFINED (_DEBUGGER)?0x8:0x0)

.dbg_code       0xbfc02000        0x0
                0xbfc02000                . = (. + DEFINED (_DEBUGGER)?_DBG_CODE_SIZE:0x0)

.app_excpt      0x9fc01180       0x10
 *(.gen_handler)
 .gen_handler   0x9fc01180       0x10 C:\Users\shiro019\AppData\Local\Temp\ccoS15Bg.o

.vector_0       0x9fc01200        0x8
 *(.vector_0)
 .vector_0      0x9fc01200        0x8 c:/program files (x86)/microchip/xc32/v2.30/bin/bin/../../lib/gcc/pic32mx/4.8.3/../../../../pic32mx/lib\libpic32.a(vector0.o)
                0x9fc01200                __vector_dispatch_0
                0x00000001                ASSERT (((_vector_spacing == 0x0) || (SIZEOF (.vector_0) <= (_vector_spacing << 0x5))), function at exception vector 0 too large)

.vector_1       0x9fc01220        0x8
 *(.vector_1)
 .vector_1      0x9fc01220        0x8 build/pic32mx_sk/production/_ext/789006650/port.o
                0x9fc01220                __vector_dispatch_1
                0x00000001                ASSERT (((_vector_spacing == 0x0) || (SIZEOF (.vector_1) <= (_vector_spacing << 0x5))), function at exception vector 1 too large)

.vector_2       0x9fc01240        0x8
 *(.vector_2)
 .vector_2      0x9fc01240        0x8 c:/program files (x86)/microchip/xc32/v2.30/bin/bin/../../lib/gcc/pic32mx/4.8.3/../../../../pic32mx/lib\libpic32.a(vector2.o)
                0x9fc01240                __vector_dispatch_2
                0x00000001                ASSERT (((_vector_spacing == 0x0) || (SIZEOF (.vector_2) <= (_vector_spacing << 0x5))), function at exception vector 2 too large)

.vector_3       0x9fc01260        0x8
 *(.vector_3)
 .vector_3      0x9fc01260        0x8 c:/program files (x86)/microchip/xc32/v2.30/bin/bin/../../lib/gcc/pic32mx/4.8.3/../../../../pic32mx/lib\libpic32.a(vector3.o)
                0x9fc01260                __vector_dispatch_3
                0x00000001                ASSERT (((_vector_spacing == 0x0) || (SIZEOF (.vector_3) <= (_vector_spacing << 0x5))), function at exception vector 3 too large)

.vector_4       0x9fc01280        0x8
 *(.vector_4)
 .vector_4      0x9fc01280        0x8 build/pic32mx_sk/production/_ext/789006650/port.o
                0x9fc01280                __vector_dispatch_4
                0x00000001                ASSERT (((_vector_spacing == 0x0) || (SIZEOF (.vector_4) <= (_vector_spacing << 0x5))), function at exception vector 4 too large)

.vector_5       0x9fc012a0        0x8
 *(.vector_5)
 .vector_5      0x9fc012a0        0x8 c:/program files (x86)/microchip/xc32/v2.30/bin/bin/../../lib/gcc/pic32mx/4.8.3/../../../../pic32mx/lib\libpic32.a(vector5.o)
                0x9fc012a0                __vector_dispatch_5
                0x00000001                ASSERT (((_vector_spacing == 0x0) || (SIZEOF (.vector_5) <= (_vector_spacing << 0x5))), function at exception vector 5 too large)

.vector_6       0x9fc012c0        0x8
 *(.vector_6)
 .vector_6      0x9fc012c0        0x8 c:/program files (x86)/microchip/xc32/v2.30/bin/bin/../../lib/gcc/pic32mx/4.8.3/../../../../pic32mx/lib\libpic32.a(vector6.o)
                0x9fc012c0                __vector_dispatch_6
                0x00000001                ASSERT (((_vector_spacing == 0x0) || (SIZEOF (.vector_6) <= (_vector_spacing << 0x5))), function at exception vector 6 too large)

.vector_7       0x9fc012e0        0x8
 *(.vector_7)
 .vector_7      0x9fc012e0        0x8 c:/program files (x86)/microchip/xc32/v2.30/bin/bin/../../lib/gcc/pic32mx/4.8.3/../../../../pic32mx/lib\libpic32.a(vector7.o)
                0x9fc012e0                __vector_dispatch_7
                0x00000001                ASSERT (((_vector_spacing == 0x0) || (SIZEOF (.vector_7) <= (_vector_spacing << 0x5))), function at exception vector 7 too large)

.vector_8       0x9fc01300        0x8
 *(.vector_8)
 .vector_8      0x9fc01300        0x8 c:/program files (x86)/microchip/xc32/v2.30/bin/bin/../../lib/gcc/pic32mx/4.8.3/../../../../pic32mx/lib\libpic32.a(vector8.o)
                0x9fc01300                __vector_dispatch_8
                0x00000001                ASSERT (((_vector_spacing == 0x0) || (SIZEOF (.vector_8) <= (_vector_spacing << 0x5))), function at exception vector 8 too large)

.vector_9       0x9fc01320        0x8
 *(.vector_9)
 .vector_9      0x9fc01320        0x8 c:/program files (x86)/microchip/xc32/v2.30/bin/bin/../../lib/gcc/pic32mx/4.8.3/../../../../pic32mx/lib\libpic32.a(vector9.o)
                0x9fc01320                __vector_dispatch_9
                0x00000001                ASSERT (((_vector_spacing == 0x0) || (SIZEOF (.vector_9) <= (_vector_spacing << 0x5))), function at exception vector 9 too large)

.vector_10      0x9fc01340        0x8
 *(.vector_10)
 .vector_10     0x9fc01340        0x8 c:/program files (x86)/microchip/xc32/v2.30/bin/bin/../../lib/gcc/pic32mx/4.8.3/../../../../pic32mx/lib\libpic32.a(vector10.o)
                0x9fc01340                __vector_dispatch_10
                0x00000001                ASSERT (((_vector_spacing == 0x0) || (SIZEOF (.vector_10) <= (_vector_spacing << 0x5))), function at exception vector 10 too large)

.vector_11      0x9fc01360        0x8
 *(.vector_11)
 .vector_11     0x9fc01360        0x8 c:/program files (x86)/microchip/xc32/v2.30/bin/bin/../../lib/gcc/pic32mx/4.8.3/../../../../pic32mx/lib\libpic32.a(vector11.o)
                0x9fc01360                __vector_dispatch_11
                0x00000001                ASSERT (((_vector_spacing == 0x0) || (SIZEOF (.vector_11) <= (_vector_spacing << 0x5))), function at exception vector 11 too large)

.vector_12      0x9fc01380        0x8
 *(.vector_12)
 .vector_12     0x9fc01380        0x8 c:/program files (x86)/microchip/xc32/v2.30/bin/bin/../../lib/gcc/pic32mx/4.8.3/../../../../pic32mx/lib\libpic32.a(vector12.o)
                0x9fc01380                __vector_dispatch_12
                0x00000001                ASSERT (((_vector_spacing == 0x0) || (SIZEOF (.vector_12) <= (_vector_spacing << 0x5))), function at exception vector 12 too large)

.vector_13      0x9fc013a0        0x8
 *(.vector_13)
 .vector_13     0x9fc013a0        0x8 c:/program files (x86)/microchip/xc32/v2.30/bin/bin/../../lib/gcc/pic32mx/4.8.3/../../../../pic32mx/lib\libpic32.a(vector13.o)
                0x9fc013a0                __vector_dispatch_13
                0x00000001                ASSERT (((_vector_spacing == 0x0) || (SIZEOF (.vector_13) <= (_vector_spacing << 0x5))), function at exception vector 13 too large)

.vector_14      0x9fc013c0        0x8
 *(.vector_14)
 .vector_14     0x9fc013c0        0x8 c:/program files (x86)/microchip/xc32/v2.30/bin/bin/../../lib/gcc/pic32mx/4.8.3/../../../../pic32mx/lib\libpic32.a(vector14.o)
                0x9fc013c0                __vector_dispatch_14
                0x00000001                ASSERT (((_vector_spacing == 0x0) || (SIZEOF (.vector_14) <= (_vector_spacing << 0x5))), function at exception vector 14 too large)

.vector_15      0x9fc013e0        0x8
 *(.vector_15)
 .vector_15     0x9fc013e0        0x8 c:/program files (x86)/microchip/xc32/v2.30/bin/bin/../../lib/gcc/pic32mx/4.8.3/../../../../pic32mx/lib\libpic32.a(vector15.o)
                0x9fc013e0                __vector_dispatch_15
                0x00000001                ASSERT (((_vector_spacing == 0x0) || (SIZEOF (.vector_15) <= (_vector_spacing << 0x5))), function at exception vector 15 too large)

.vector_16      0x9fc01400        0x8
 *(.vector_16)
 .vector_16     0x9fc01400        0x8 c:/program files (x86)/microchip/xc32/v2.30/bin/bin/../../lib/gcc/pic32mx/4.8.3/../../../../pic32mx/lib\libpic32.a(vector16.o)
                0x9fc01400                __vector_dispatch_16
                0x00000001                ASSERT (((_vector_spacing == 0x0) || (SIZEOF (.vector_16) <= (_vector_spacing << 0x5))), function at exception vector 16 too large)

.vector_17      0x9fc01420        0x8
 *(.vector_17)
 .vector_17     0x9fc01420        0x8 c:/program files (x86)/microchip/xc32/v2.30/bin/bin/../../lib/gcc/pic32mx/4.8.3/../../../../pic32mx/lib\libpic32.a(vector17.o)
                0x9fc01420                __vector_dispatch_17
                0x00000001                ASSERT (((_vector_spacing == 0x0) || (SIZEOF (.vector_17) <= (_vector_spacing << 0x5))), function at exception vector 17 too large)

.vector_18      0x9fc01440        0x8
 *(.vector_18)
 .vector_18     0x9fc01440        0x8 c:/program files (x86)/microchip/xc32/v2.30/bin/bin/../../lib/gcc/pic32mx/4.8.3/../../../../pic32mx/lib\libpic32.a(vector18.o)
                0x9fc01440                __vector_dispatch_18
                0x00000001                ASSERT (((_vector_spacing == 0x0) || (SIZEOF (.vector_18) <= (_vector_spacing << 0x5))), function at exception vector 18 too large)

.vector_19      0x9fc01460        0x8
 *(.vector_19)
 .vector_19     0x9fc01460        0x8 c:/program files (x86)/microchip/xc32/v2.30/bin/bin/../../lib/gcc/pic32mx/4.8.3/../../../../pic32mx/lib\libpic32.a(vector19.o)
                0x9fc01460                __vector_dispatch_19
                0x00000001                ASSERT (((_vector_spacing == 0x0) || (SIZEOF (.vector_19) <= (_vector_spacing << 0x5))), function at exception vector 19 too large)

.vector_20      0x9fc01480        0x8
 *(.vector_20)
 .vector_20     0x9fc01480        0x8 c:/program files (x86)/microchip/xc32/v2.30/bin/bin/../../lib/gcc/pic32mx/4.8.3/../../../../pic32mx/lib\libpic32.a(vector20.o)
                0x9fc01480                __vector_dispatch_20
                0x00000001                ASSERT (((_vector_spacing == 0x0) || (SIZEOF (.vector_20) <= (_vector_spacing << 0x5))), function at exception vector 20 too large)

.vector_21      0x9fc014a0        0x8
 *(.vector_21)
 .vector_21     0x9fc014a0        0x8 c:/program files (x86)/microchip/xc32/v2.30/bin/bin/../../lib/gcc/pic32mx/4.8.3/../../../../pic32mx/lib\libpic32.a(vector21.o)
                0x9fc014a0                __vector_dispatch_21
                0x00000001                ASSERT (((_vector_spacing == 0x0) || (SIZEOF (.vector_21) <= (_vector_spacing << 0x5))), function at exception vector 21 too large)

.vector_22      0x9fc014c0        0x8
 *(.vector_22)
 .vector_22     0x9fc014c0        0x8 c:/program files (x86)/microchip/xc32/v2.30/bin/bin/../../lib/gcc/pic32mx/4.8.3/../../../../pic32mx/lib\libpic32.a(vector22.o)
                0x9fc014c0                __vector_dispatch_22
                0x00000001                ASSERT (((_vector_spacing == 0x0) || (SIZEOF (.vector_22) <= (_vector_spacing << 0x5))), function at exception vector 22 too large)

.vector_23      0x9fc014e0        0x8
 *(.vector_23)
 .vector_23     0x9fc014e0        0x8 c:/program files (x86)/microchip/xc32/v2.30/bin/bin/../../lib/gcc/pic32mx/4.8.3/../../../../pic32mx/lib\libpic32.a(vector23.o)
                0x9fc014e0                __vector_dispatch_23
                0x00000001                ASSERT (((_vector_spacing == 0x0) || (SIZEOF (.vector_23) <= (_vector_spacing << 0x5))), function at exception vector 23 too large)

.vector_24      0x9fc01500        0x8
 *(.vector_24)
 .vector_24     0x9fc01500        0x8 c:/program files (x86)/microchip/xc32/v2.30/bin/bin/../../lib/gcc/pic32mx/4.8.3/../../../../pic32mx/lib\libpic32.a(vector24.o)
                0x9fc01500                __vector_dispatch_24
                0x00000001                ASSERT (((_vector_spacing == 0x0) || (SIZEOF (.vector_24) <= (_vector_spacing << 0x5))), function at exception vector 24 too large)

.vector_25      0x9fc01520        0x8
 *(.vector_25)
 .vector_25     0x9fc01520        0x8 c:/program files (x86)/microchip/xc32/v2.30/bin/bin/../../lib/gcc/pic32mx/4.8.3/../../../../pic32mx/lib\libpic32.a(vector25.o)
                0x9fc01520                __vector_dispatch_25
                0x00000001                ASSERT (((_vector_spacing == 0x0) || (SIZEOF (.vector_25) <= (_vector_spacing << 0x5))), function at exception vector 25 too large)

.vector_26      0x9fc01540        0x8
 *(.vector_26)
 .vector_26     0x9fc01540        0x8 c:/program files (x86)/microchip/xc32/v2.30/bin/bin/../../lib/gcc/pic32mx/4.8.3/../../../../pic32mx/lib\libpic32.a(vector26.o)
                0x9fc01540                __vector_dispatch_26
                0x00000001                ASSERT (((_vector_spacing == 0x0) || (SIZEOF (.vector_26) <= (_vector_spacing << 0x5))), function at exception vector 26 too large)

.vector_27      0x9fc01560        0x8
 *(.vector_27)
 .vector_27     0x9fc01560        0x8 c:/program files (x86)/microchip/xc32/v2.30/bin/bin/../../lib/gcc/pic32mx/4.8.3/../../../../pic32mx/lib\libpic32.a(vector27.o)
                0x9fc01560                __vector_dispatch_27
                0x00000001                ASSERT (((_vector_spacing == 0x0) || (SIZEOF (.vector_27) <= (_vector_spacing << 0x5))), function at exception vector 27 too large)

.vector_28      0x9fc01580        0x8
 *(.vector_28)
 .vector_28     0x9fc01580        0x8 c:/program files (x86)/microchip/xc32/v2.30/bin/bin/../../lib/gcc/pic32mx/4.8.3/../../../../pic32mx/lib\libpic32.a(vector28.o)
                0x9fc01580                __vector_dispatch_28
                0x00000001                ASSERT (((_vector_spacing == 0x0) || (SIZEOF (.vector_28) <= (_vector_spacing << 0x5))), function at exception vector 28 too large)

.vector_29      0x9fc015a0        0x8
 *(.vector_29)
 .vector_29     0x9fc015a0        0x8 c:/program files (x86)/microchip/xc32/v2.30/bin/bin/../../lib/gcc/pic32mx/4.8.3/../../../../pic32mx/lib\libpic32.a(vector29.o)
                0x9fc015a0                __vector_dispatch_29
                0x00000001                ASSERT (((_vector_spacing == 0x0) || (SIZEOF (.vector_29) <= (_vector_spacing << 0x5))), function at exception vector 29 too large)

.vector_30      0x9fc015c0        0x8
 *(.vector_30)
 .vector_30     0x9fc015c0        0x8 c:/program files (x86)/microchip/xc32/v2.30/bin/bin/../../lib/gcc/pic32mx/4.8.3/../../../../pic32mx/lib\libpic32.a(vector30.o)
                0x9fc015c0                __vector_dispatch_30
                0x00000001                ASSERT (((_vector_spacing == 0x0) || (SIZEOF (.vector_30) <= (_vector_spacing << 0x5))), function at exception vector 30 too large)

.vector_31      0x9fc015e0        0x8
 *(.vector_31)
 .vector_31     0x9fc015e0        0x8 c:/program files (x86)/microchip/xc32/v2.30/bin/bin/../../lib/gcc/pic32mx/4.8.3/../../../../pic32mx/lib\libpic32.a(vector31.o)
                0x9fc015e0                __vector_dispatch_31
                0x00000001                ASSERT (((_vector_spacing == 0x0) || (SIZEOF (.vector_31) <= (_vector_spacing << 0x5))), function at exception vector 31 too large)

.vector_32      0x9fc01600        0x8
 *(.vector_32)
 .vector_32     0x9fc01600        0x8 c:/program files (x86)/microchip/xc32/v2.30/bin/bin/../../lib/gcc/pic32mx/4.8.3/../../../../pic32mx/lib\libpic32.a(vector32.o)
                0x9fc01600                __vector_dispatch_32
                0x00000001                ASSERT (((_vector_spacing == 0x0) || (SIZEOF (.vector_32) <= (_vector_spacing << 0x5))), function at exception vector 32 too large)

.vector_33      0x9fc01620        0x8
 *(.vector_33)
 .vector_33     0x9fc01620        0x8 c:/program files (x86)/microchip/xc32/v2.30/bin/bin/../../lib/gcc/pic32mx/4.8.3/../../../../pic32mx/lib\libpic32.a(vector33.o)
                0x9fc01620                __vector_dispatch_33
                0x00000001                ASSERT (((_vector_spacing == 0x0) || (SIZEOF (.vector_33) <= (_vector_spacing << 0x5))), function at exception vector 33 too large)

.vector_34      0x9fc01640        0x8
 *(.vector_34)
 .vector_34     0x9fc01640        0x8 c:/program files (x86)/microchip/xc32/v2.30/bin/bin/../../lib/gcc/pic32mx/4.8.3/../../../../pic32mx/lib\libpic32.a(vector34.o)
                0x9fc01640                __vector_dispatch_34
                0x00000001                ASSERT (((_vector_spacing == 0x0) || (SIZEOF (.vector_34) <= (_vector_spacing << 0x5))), function at exception vector 34 too large)

.vector_35      0x9fc01660        0x8
 *(.vector_35)
 .vector_35     0x9fc01660        0x8 c:/program files (x86)/microchip/xc32/v2.30/bin/bin/../../lib/gcc/pic32mx/4.8.3/../../../../pic32mx/lib\libpic32.a(vector35.o)
                0x9fc01660                __vector_dispatch_35
                0x00000001                ASSERT (((_vector_spacing == 0x0) || (SIZEOF (.vector_35) <= (_vector_spacing << 0x5))), function at exception vector 35 too large)

.vector_36      0x9fc01680        0x8
 *(.vector_36)
 .vector_36     0x9fc01680        0x8 c:/program files (x86)/microchip/xc32/v2.30/bin/bin/../../lib/gcc/pic32mx/4.8.3/../../../../pic32mx/lib\libpic32.a(vector36.o)
                0x9fc01680                __vector_dispatch_36
                0x00000001                ASSERT (((_vector_spacing == 0x0) || (SIZEOF (.vector_36) <= (_vector_spacing << 0x5))), function at exception vector 36 too large)

.vector_37      0x9fc016a0        0x8
 *(.vector_37)
 .vector_37     0x9fc016a0        0x8 c:/program files (x86)/microchip/xc32/v2.30/bin/bin/../../lib/gcc/pic32mx/4.8.3/../../../../pic32mx/lib\libpic32.a(vector37.o)
                0x9fc016a0                __vector_dispatch_37
                0x00000001                ASSERT (((_vector_spacing == 0x0) || (SIZEOF (.vector_37) <= (_vector_spacing << 0x5))), function at exception vector 37 too large)

.vector_38      0x9fc016c0        0x8
 *(.vector_38)
 .vector_38     0x9fc016c0        0x8 c:/program files (x86)/microchip/xc32/v2.30/bin/bin/../../lib/gcc/pic32mx/4.8.3/../../../../pic32mx/lib\libpic32.a(vector38.o)
                0x9fc016c0                __vector_dispatch_38
                0x00000001                ASSERT (((_vector_spacing == 0x0) || (SIZEOF (.vector_38) <= (_vector_spacing << 0x5))), function at exception vector 38 too large)

.vector_39      0x9fc016e0        0x8
 *(.vector_39)
 .vector_39     0x9fc016e0        0x8 c:/program files (x86)/microchip/xc32/v2.30/bin/bin/../../lib/gcc/pic32mx/4.8.3/../../../../pic32mx/lib\libpic32.a(vector39.o)
                0x9fc016e0                __vector_dispatch_39
                0x00000001                ASSERT (((_vector_spacing == 0x0) || (SIZEOF (.vector_39) <= (_vector_spacing << 0x5))), function at exception vector 39 too large)

.vector_40      0x9fc01700        0x8
 *(.vector_40)
 .vector_40     0x9fc01700        0x8 c:/program files (x86)/microchip/xc32/v2.30/bin/bin/../../lib/gcc/pic32mx/4.8.3/../../../../pic32mx/lib\libpic32.a(vector40.o)
                0x9fc01700                __vector_dispatch_40
                0x00000001                ASSERT (((_vector_spacing == 0x0) || (SIZEOF (.vector_40) <= (_vector_spacing << 0x5))), function at exception vector 40 too large)

.vector_41      0x9fc01720        0x8
 *(.vector_41)
 .vector_41     0x9fc01720        0x8 c:/program files (x86)/microchip/xc32/v2.30/bin/bin/../../lib/gcc/pic32mx/4.8.3/../../../../pic32mx/lib\libpic32.a(vector41.o)
                0x9fc01720                __vector_dispatch_41
                0x00000001                ASSERT (((_vector_spacing == 0x0) || (SIZEOF (.vector_41) <= (_vector_spacing << 0x5))), function at exception vector 41 too large)

.vector_42      0x9fc01740        0x8
 *(.vector_42)
 .vector_42     0x9fc01740        0x8 c:/program files (x86)/microchip/xc32/v2.30/bin/bin/../../lib/gcc/pic32mx/4.8.3/../../../../pic32mx/lib\libpic32.a(vector42.o)
                0x9fc01740                __vector_dispatch_42
                0x00000001                ASSERT (((_vector_spacing == 0x0) || (SIZEOF (.vector_42) <= (_vector_spacing << 0x5))), function at exception vector 42 too large)

.vector_43      0x9fc01760        0x8
 *(.vector_43)
 .vector_43     0x9fc01760        0x8 c:/program files (x86)/microchip/xc32/v2.30/bin/bin/../../lib/gcc/pic32mx/4.8.3/../../../../pic32mx/lib\libpic32.a(vector43.o)
                0x9fc01760                __vector_dispatch_43
                0x00000001                ASSERT (((_vector_spacing == 0x0) || (SIZEOF (.vector_43) <= (_vector_spacing << 0x5))), function at exception vector 43 too large)

.vector_44      0x9fc01780        0x8
 *(.vector_44)
 .vector_44     0x9fc01780        0x8 c:/program files (x86)/microchip/xc32/v2.30/bin/bin/../../lib/gcc/pic32mx/4.8.3/../../../../pic32mx/lib\libpic32.a(vector44.o)
                0x9fc01780                __vector_dispatch_44
                0x00000001                ASSERT (((_vector_spacing == 0x0) || (SIZEOF (.vector_44) <= (_vector_spacing << 0x5))), function at exception vector 44 too large)

.vector_45      0x9fc017a0        0x8
 *(.vector_45)
 .vector_45     0x9fc017a0        0x8 c:/program files (x86)/microchip/xc32/v2.30/bin/bin/../../lib/gcc/pic32mx/4.8.3/../../../../pic32mx/lib\libpic32.a(vector45.o)
                0x9fc017a0                __vector_dispatch_45
                0x00000001                ASSERT (((_vector_spacing == 0x0) || (SIZEOF (.vector_45) <= (_vector_spacing << 0x5))), function at exception vector 45 too large)

.vector_46      0x9fc017c0        0x0
 *(.vector_46)
                0x00000001                ASSERT (((_vector_spacing == 0x0) || (SIZEOF (.vector_46) <= (_vector_spacing << 0x5))), function at exception vector 46 too large)

.vector_47      0x9fc017e0        0x0
 *(.vector_47)
                0x00000001                ASSERT (((_vector_spacing == 0x0) || (SIZEOF (.vector_47) <= (_vector_spacing << 0x5))), function at exception vector 47 too large)

.vector_48      0x9fc01800        0x0
 *(.vector_48)
                0x00000001                ASSERT (((_vector_spacing == 0x0) || (SIZEOF (.vector_48) <= (_vector_spacing << 0x5))), function at exception vector 48 too large)

.vector_49      0x9fc01820        0x0
 *(.vector_49)
                0x00000001                ASSERT (((_vector_spacing == 0x0) || (SIZEOF (.vector_49) <= (_vector_spacing << 0x5))), function at exception vector 49 too large)

.vector_50      0x9fc01840        0x0
 *(.vector_50)
                0x00000001                ASSERT (((_vector_spacing == 0x0) || (SIZEOF (.vector_50) <= (_vector_spacing << 0x5))), function at exception vector 50 too large)

.vector_51      0x9fc01860        0x0
 *(.vector_51)
                0x00000001                ASSERT (((_vector_spacing == 0x0) || (SIZEOF (.vector_51) <= (_vector_spacing << 0x5))), function at exception vector 51 too large)

.vector_52      0x9fc01880        0x0
 *(.vector_52)
                0x00000001                ASSERT (((_vector_spacing == 0x0) || (SIZEOF (.vector_52) <= (_vector_spacing << 0x5))), function at exception vector 52 too large)

.vector_53      0x9fc018a0        0x0
 *(.vector_53)
                0x00000001                ASSERT (((_vector_spacing == 0x0) || (SIZEOF (.vector_53) <= (_vector_spacing << 0x5))), function at exception vector 53 too large)

.vector_54      0x9fc018c0        0x0
 *(.vector_54)
                0x00000001                ASSERT (((_vector_spacing == 0x0) || (SIZEOF (.vector_54) <= (_vector_spacing << 0x5))), function at exception vector 54 too large)

.vector_55      0x9fc018e0        0x0
 *(.vector_55)
                0x00000001                ASSERT (((_vector_spacing == 0x0) || (SIZEOF (.vector_55) <= (_vector_spacing << 0x5))), function at exception vector 55 too large)

.vector_56      0x9fc01900        0x0
 *(.vector_56)
                0x00000001                ASSERT (((_vector_spacing == 0x0) || (SIZEOF (.vector_56) <= (_vector_spacing << 0x5))), function at exception vector 56 too large)

.vector_57      0x9fc01920        0x0
 *(.vector_57)
                0x00000001                ASSERT (((_vector_spacing == 0x0) || (SIZEOF (.vector_57) <= (_vector_spacing << 0x5))), function at exception vector 57 too large)

.vector_58      0x9fc01940        0x0
 *(.vector_58)
                0x00000001                ASSERT (((_vector_spacing == 0x0) || (SIZEOF (.vector_58) <= (_vector_spacing << 0x5))), function at exception vector 58 too large)

.vector_59      0x9fc01960        0x0
 *(.vector_59)
                0x00000001                ASSERT (((_vector_spacing == 0x0) || (SIZEOF (.vector_59) <= (_vector_spacing << 0x5))), function at exception vector 59 too large)

.vector_60      0x9fc01980        0x0
 *(.vector_60)
                0x00000001                ASSERT (((_vector_spacing == 0x0) || (SIZEOF (.vector_60) <= (_vector_spacing << 0x5))), function at exception vector 60 too large)

.vector_61      0x9fc019a0        0x0
 *(.vector_61)
                0x00000001                ASSERT (((_vector_spacing == 0x0) || (SIZEOF (.vector_61) <= (_vector_spacing << 0x5))), function at exception vector 61 too large)

.vector_62      0x9fc019c0        0x0
 *(.vector_62)
                0x00000001                ASSERT (((_vector_spacing == 0x0) || (SIZEOF (.vector_62) <= (_vector_spacing << 0x5))), function at exception vector 62 too large)

.vector_63      0x9fc019e0        0x0
 *(.vector_63)
                0x00000001                ASSERT (((_vector_spacing == 0x0) || (SIZEOF (.vector_63) <= (_vector_spacing << 0x5))), function at exception vector 63 too large)

.startup
 *(.startup)

.text           0x9d000000        0x0
 *(.stub .gnu.linkonce.t.*)
 *(.text.*personality*)
 *(.mips16.fn.*)
 *(.mips16.call.*)
 *(.gnu.warning)
                0x9d000000                . = ALIGN (0x4)

.init           0x9d000000        0x0
 *crti.o(.init)
 *crtbegin.o(.init)
 *(EXCLUDE_FILE(*crtn.o *crtend?.o *crtend.o) .init)
 *crtend.o(.init)
 *crtn.o(.init)
                0x9d000000                . = ALIGN (0x4)

.fini           0x9d000000        0x0
 *(.fini)
                0x9d000000                . = ALIGN (0x4)

.preinit_array  0x9d000000        0x0
                0x9d000000                PROVIDE (__preinit_array_start, .)
 *(.preinit_array)
                0x9d000000                PROVIDE (__preinit_array_end, .)
                0x9d000000                . = ALIGN (0x4)

.init_array     0x9d000000        0x0
                0x9d000000                PROVIDE (__init_array_start, .)
 *(SORT(.init_array.*))
 *(.init_array)
                0x9d000000                PROVIDE (__init_array_end, .)
                0x9d000000                . = ALIGN (0x4)

.fini_array     0x9d000000        0x0
                0x9d000000                PROVIDE (__fini_array_start, .)
 *(SORT(.fini_array.*))
 *(.fini_array)
                0x9d000000                PROVIDE (__fini_array_end, .)
                0x9d000000                . = ALIGN (0x4)

.ctors          0x9d000000        0x0
 *crtbegin.o(.ctors)
 *crtbegin?.o(.ctors)
 *(EXCLUDE_FILE(*crtend?.o *crtend.o) .ctors)
 *(SORT(.ctors.*))
 *(.ctors)
                0x9d000000                . = ALIGN (0x4)

.dtors          0x9d000000        0x0
 *crtbegin.o(.dtors)
 *crtbegin?.o(.dtors)
 *(EXCLUDE_FILE(*crtend?.o *crtend.o) .dtors)
 *(SORT(.dtors.*))
 *(.dtors)
                0x9d000000                . = ALIGN (0x4)

.rodata         0x9d000000        0x0
 *(.gnu.linkonce.r.*)
 *(.rodata1)
                0x9d000000                . = ALIGN (0x4)

.sdata2         0x9fc00490        0x0
 *(.sdata2 .sdata2.* .gnu.linkonce.s2.*)
                0x9fc00490                . = ALIGN (0x4)

.sbss2          0x9fc00490        0x0
 *(.sbss2 .sbss2.* .gnu.linkonce.sb2.*)
                0x9fc00490                . = ALIGN (0x4)

.eh_frame_hdr
 *(.eh_frame_hdr)
                0x9fc00490                . = ALIGN (0x4)

.eh_frame
 *(.eh_frame)
                0x9fc00490                . = ALIGN (0x4)

.gcc_except_table
 *(.gcc_except_table .gcc_except_table.*)
                0x9fc00490                . = ALIGN (0x4)

.dbg_data       0xa0000000        0x0
                0xa0000000                . = (. + DEFINED (_DEBUGGER)?0x200:0x0)

.jcr            0xa0000000        0x0
 *(.jcr)
                0xa0000000                . = ALIGN (0x4)

.eh_frame
 *(.eh_frame)
                0xa0000000                . = ALIGN (0x4)

.gcc_except_table
 *(.gcc_except_table .gcc_except_table.*)
                0xa0000000                . = ALIGN (0x4)

.persist        0xa0000000        0x0
                0xa0000000                _persist_begin = .
 *(.persist .persist.*)
 *(.pbss .pbss.*)
                0xa0000000                . = ALIGN (0x4)
                0xa0000000                _persist_end = .

.data           0xa0000000        0x0
 *(.gnu.linkonce.d.*)
 *(.data1)
                0xa0000000                . = ALIGN (0x4)
                0xa0000000                . = .
                0xa0007ff0                _gp = (ALIGN (0x10) + 0x7ff0)

.got            0xa0000000        0x0
 *(.got.plt)
 *(.got)
                0xa0000000                . = ALIGN (0x4)

.sdata          0xa0000000        0xc
                0xa0000000                _sdata_begin = .
 *(.sdata .sdata.* .gnu.linkonce.s.*)
 .sdata         0xa0000000        0x4 build/pic32mx_sk/production/_ext/1360937237/app.o
                0xa0000000                ulValueToSend2
 .sdata         0xa0000004        0x4 build/pic32mx_sk/production/_ext/789006650/port.o
                0xa0000004                uxInterruptNesting
 .sdata         0xa0000008        0x4 c:/program files (x86)/microchip/xc32/v2.30/bin/bin/../../lib/gcc/pic32mx/4.8.3/../../../../pic32mx/lib\libpic32.a(xc32_uart.o)
                0xa0000008                __XC_UART
                0xa000000c                . = ALIGN (0x4)
                0xa000000c                _sdata_end = .

.lit8
 *(.lit8)

.lit4
 *(.lit4)
                0xa000000c                . = ALIGN (0x4)
                0xa000000c                _data_end = .
                0xa000000c                _bss_begin = .

.sbss           0xa000000c       0x74
                0xa000000c                _sbss_begin = .
 *(.dynsbss)
 *(.sbss .sbss.* .gnu.linkonce.sb.*)
 .sbss          0xa000000c        0xc build/pic32mx_sk/production/_ext/351744058/system_exceptions.o
 .sbss          0xa0000018        0x8 build/pic32mx_sk/production/_ext/1360937237/app.o
                0xa0000018                ulValueToSend1
                0xa000001c                xQueue
 .sbss          0xa0000020        0x8 build/pic32mx_sk/production/_ext/427228813/heap_1.o
 .sbss          0xa0000028        0x4 build/pic32mx_sk/production/_ext/789006650/port.o
                0xa0000028                uxSavedTaskStackPointer
 .sbss          0xa000002c       0x3c build/pic32mx_sk/production/_ext/161854096/tasks.o
                0xa0000064                pxCurrentTCB
 *(.scommon)
 .scommon       0xa0000068        0x8 build/pic32mx_sk/production/_ext/374885412/sys_devcon.o
                0xa0000068                sysDevconObj
 .scommon       0xa0000070        0x0 build/pic32mx_sk/production/_ext/351744058/system_init.o
                0xa0000070                sysObj
 .scommon       0xa0000070        0x4 build/pic32mx_sk/production/_ext/1360937237/app.o
                0xa0000070                appData
 .scommon       0xa0000074        0x4 build/pic32mx_sk/production/_ext/1360937237/app1.o
                0xa0000074                app1Data
 .scommon       0xa0000078        0x4 build/pic32mx_sk/production/_ext/1360937237/app2.o
                0xa0000078                app2Data
 .scommon       0xa000007c        0x4 build/pic32mx_sk/production/_ext/1360937237/app3.o
                0xa000007c                app3Data
                0xa0000080                _sbss_end = .
                0xa0000080                . = ALIGN (0x4)

.bss            0xa0000080        0x0
 *(.dynbss)
 *(COMMON)
                0xa0000080                . = ALIGN ((. != 0x0)?0x4:0x1)
                0xa0000080                . = ALIGN (0x4)
                0xa0000080                _end = .
                0xa0000080                _bss_end = .
                0x00020000                _bmxdudba_address = 0x20000
                0x00020000                _bmxdupba_address = 0x20000

/DISCARD/
 *(.pdr)
 *(.rel.dyn)
 *(.note.GNU-stack)
 *(.note.GNU-stack)
 *(.gnu_debuglink)
 *(.gnu.lto_*)
 *(.discard)

.gptab.sdata
 *(.gptab.data)
 *(.gptab.sdata)

.gptab.sbss
 *(.gptab.bss)
 *(.gptab.sbss)

.mdebug.abi32   0xa0000080        0x0
 *(.mdebug.abi32)
 .mdebug.abi32  0xa0000080        0x0 build/pic32mx_sk/production/_ext/1764187882/bsp.o
 .mdebug.abi32  0xa0000080        0x0 build/pic32mx_sk/production/_ext/1458591747/sys_clk_pic32mx.o
 .mdebug.abi32  0xa0000080        0x0 build/pic32mx_sk/production/_ext/374885412/sys_devcon.o
 .mdebug.abi32  0xa0000080        0x0 build/pic32mx_sk/production/_ext/374885412/sys_devcon_pic32mx.o
 .mdebug.abi32  0xa0000080        0x0 build/pic32mx_sk/production/_ext/1255054701/sys_ports_static.o
 .mdebug.abi32  0xa0000080        0x0 build/pic32mx_sk/production/_ext/351744058/system_init.o
 .mdebug.abi32  0xa0000080        0x0 build/pic32mx_sk/production/_ext/351744058/system_interrupt.o
 .mdebug.abi32  0xa0000080        0x0 build/pic32mx_sk/production/_ext/351744058/system_exceptions.o
 .mdebug.abi32  0xa0000080        0x0 build/pic32mx_sk/production/_ext/351744058/system_tasks.o
 .mdebug.abi32  0xa0000080        0x0 build/pic32mx_sk/production/_ext/351744058/rtos_hooks.o
 .mdebug.abi32  0xa0000080        0x0 build/pic32mx_sk/production/_ext/1360937237/app.o
 .mdebug.abi32  0xa0000080        0x0 build/pic32mx_sk/production/_ext/1360937237/app1.o
 .mdebug.abi32  0xa0000080        0x0 build/pic32mx_sk/production/_ext/1360937237/app2.o
 .mdebug.abi32  0xa0000080        0x0 build/pic32mx_sk/production/_ext/1360937237/app3.o
 .mdebug.abi32  0xa0000080        0x0 build/pic32mx_sk/production/_ext/1360937237/main.o
 .mdebug.abi32  0xa0000080        0x0 build/pic32mx_sk/production/_ext/2067596619/osal_freertos.o
 .mdebug.abi32  0xa0000080        0x0 build/pic32mx_sk/production/_ext/711155467/sys_int_pic32.o
 .mdebug.abi32  0xa0000080        0x0 build/pic32mx_sk/production/_ext/427228813/heap_1.o
 .mdebug.abi32  0xa0000080        0x0 build/pic32mx_sk/production/_ext/789006650/port.o
 .mdebug.abi32  0xa0000080        0x0 build/pic32mx_sk/production/_ext/161854096/croutine.o
 .mdebug.abi32  0xa0000080        0x0 build/pic32mx_sk/production/_ext/161854096/list.o
 .mdebug.abi32  0xa0000080        0x0 build/pic32mx_sk/production/_ext/161854096/queue.o
 .mdebug.abi32  0xa0000080        0x0 build/pic32mx_sk/production/_ext/161854096/tasks.o
 .mdebug.abi32  0xa0000080        0x0 build/pic32mx_sk/production/_ext/161854096/timers.o
 .mdebug.abi32  0xa0000080        0x0 build/pic32mx_sk/production/_ext/161854096/event_groups.o
 .mdebug.abi32  0xa0000080        0x0 build/pic32mx_sk/production/_ext/161854096/stream_buffer.o
 .mdebug.abi32  0xa0000080        0x0 build/pic32mx_sk/production/_ext/1360937237/io_setup.o
 .mdebug.abi32  0xa0000080        0x0 ..\..\..\..\..\..\..\..\shiro019_accelerometer_spi.X\dist\default\production\shiro019_accelerometer_spi.X.a(accel_define.o)
 .mdebug.abi32  0xa0000080        0x0 ..\..\..\..\..\..\..\..\shiro019_accelerometer_spi.X\dist\default\production\shiro019_accelerometer_spi.X.a(accel_read_x.o)
 .mdebug.abi32  0xa0000080        0x0 ..\..\..\..\..\..\..\..\shiro019_accelerometer_spi.X\dist\default\production\shiro019_accelerometer_spi.X.a(accel_read_y.o)
 .mdebug.abi32  0xa0000080        0x0 ..\..\..\..\..\..\..\..\shiro019_accelerometer_spi.X\dist\default\production\shiro019_accelerometer_spi.X.a(accel_setup.o)
 .mdebug.abi32  0xa0000080        0x0 ..\..\..\..\..\..\..\..\shiro019_accelerometer_spi.X\dist\default\production\shiro019_accelerometer_spi.X.a(spi2_read_register.o)
 .mdebug.abi32  0xa0000080        0x0 ..\..\..\..\..\..\..\..\shiro019_accelerometer_spi.X\dist\default\production\shiro019_accelerometer_spi.X.a(spi2_setup.o)
 .mdebug.abi32  0xa0000080        0x0 ..\..\..\..\..\..\..\..\shiro019_accelerometer_spi.X\dist\default\production\shiro019_accelerometer_spi.X.a(spi2_write_register.o)
 .mdebug.abi32  0xa0000080        0x0 c:/program files (x86)/microchip/xc32/v2.30/bin/bin/../../lib/gcc/pic32mx/4.8.3/../../../../pic32mx/lib\libpic32.a(default-bootstrap-exception-handler.o)
 .mdebug.abi32  0xa0000080        0x0 c:/program files (x86)/microchip/xc32/v2.30/bin/bin/../../lib/gcc/pic32mx/4.8.3/../../../../pic32mx/lib\libpic32.a(default-on-reset.o)
 .mdebug.abi32  0xa0000080        0x0 c:/program files (x86)/microchip/xc32/v2.30/bin/bin/../../lib/gcc/pic32mx/4.8.3/../../../../pic32mx/lib\libpic32.a(default-on-bootstrap.o)
 .mdebug.abi32  0xa0000080        0x0 c:/program files (x86)/microchip/xc32/v2.30/bin/bin/../../lib/gcc/pic32mx/4.8.3/../../../../pic32mx/lib\libpic32.a(xc32_uart.o)
 .mdebug.abi32  0xa0000080        0x0 c:/program files (x86)/microchip/xc32/v2.30/bin/bin/../../lib/gcc/pic32mx/4.8.3/../../../../pic32mx/lib\libpic32.a(defaultinterrupt.o)
 .mdebug.abi32  0xa0000080        0x0 c:/program files (x86)/microchip/xc32/v2.30/bin/bin/../../lib/gcc/pic32mx/4.8.3/../../../../pic32mx/lib\libc.a(putchar.o)
 .mdebug.abi32  0xa0000080        0x0 c:/program files (x86)/microchip/xc32/v2.30/bin/bin/../../lib/gcc/pic32mx/4.8.3/../../../../pic32mx/lib\libc.a(printf_fF.eo)
 .mdebug.abi32  0xa0000080        0x0 c:/program files (x86)/microchip/xc32/v2.30/bin/bin/../../lib/gcc/pic32mx/4.8.3/../../../../pic32mx/lib\libc.a(printf_s.eo)
 .mdebug.abi32  0xa0000080        0x0 c:/program files (x86)/microchip/xc32/v2.30/bin/bin/../../lib/gcc/pic32mx/4.8.3/../../../../pic32mx/lib\libc.a(_iob.o)
 .mdebug.abi32  0xa0000080        0x0 c:/program files (x86)/microchip/xc32/v2.30/bin/bin/../../lib/gcc/pic32mx/4.8.3/../../../../pic32mx/lib\libc.a(_fputc_simple.o)
 .mdebug.abi32  0xa0000080        0x0 c:/program files (x86)/microchip/xc32/v2.30/bin/bin/../../lib/gcc/pic32mx/4.8.3/../../../../pic32mx/lib\libc.a(_flsbuf_simple.o)
 .mdebug.abi32  0xa0000080        0x0 c:/program files (x86)/microchip/xc32/v2.30/bin/bin/../../lib/gcc/pic32mx/4.8.3/../../../../pic32mx/lib\libc.a(ctype.o)
 .mdebug.abi32  0xa0000080        0x0 c:/program files (x86)/microchip/xc32/v2.30/bin/bin/../../lib/gcc/pic32mx/4.8.3/../../../../pic32mx/lib\libc.a(ldpowers.o)
 .mdebug.abi32  0xa0000080        0x0 c:/program files (x86)/microchip/xc32/v2.30/bin/bin/../../lib/gcc/pic32mx/4.8.3/../../../../pic32mx/lib\libc.a(doprnt_fFs.eo)
 .mdebug.abi32  0xa0000080        0x0 c:/program files (x86)/microchip/xc32/v2.30/bin/bin/../../lib/gcc/pic32mx/4.8.3/../../../../pic32mx/lib\libe.a(_fixunsdfdi.o)
 .mdebug.abi32  0xa0000080        0x0 c:/program files (x86)/microchip/xc32/v2.30/bin/bin/../../lib/gcc/pic32mx/4.8.3/../../../../pic32mx/lib\libe.a(_orderdf2.o)
 .mdebug.abi32  0xa0000080        0x0 c:/program files (x86)/microchip/xc32/v2.30/bin/bin/../../lib/gcc/pic32mx/4.8.3/../../../../pic32mx/lib\libe.a(_fixdfdi.o)
 .mdebug.abi32  0xa0000080        0x0 c:/program files (x86)/microchip/xc32/v2.30/bin/bin/../../lib/gcc/pic32mx/4.8.3\libgcc.a(_floatundidf.o)
 .mdebug.abi32  0xa0000080        0x0 c:/program files (x86)/microchip/xc32/v2.30/bin/bin/../../lib/gcc/pic32mx/4.8.3\libgcc.a(_udivdi3.o)
 .mdebug.abi32  0xa0000080        0x0 c:/program files (x86)/microchip/xc32/v2.30/bin/bin/../../lib/gcc/pic32mx/4.8.3\libgcc.a(_umoddi3.o)
 .mdebug.abi32  0xa0000080        0x0 c:/program files (x86)/microchip/xc32/v2.30/bin/bin/../../lib/gcc/pic32mx/4.8.3\libgcc.a(floatunsidf.o)
 .mdebug.abi32  0xa0000080        0x0 c:/program files (x86)/microchip/xc32/v2.30/bin/bin/../../lib/gcc/pic32mx/4.8.3/../../../../pic32mx/lib\libpic32.a(write.o)
 .mdebug.abi32  0xa0000080        0x0 c:/program files (x86)/microchip/xc32/v2.30/bin/bin/../../lib/gcc/pic32mx/4.8.3/../../../../pic32mx/lib\libpic32.a(_mon_putc.o)

.mdebug.abiN32
 *(.mdebug.abiN32)

.mdebug.abi64
 *(.mdebug.abi64)

.mdebug.abiO64
 *(.mdebug.abiO64)

.mdebug.eabi32
 *(.mdebug.eabi32)

.mdebug.eabi64
 *(.mdebug.eabi64)

.gcc_compiled_long32
 *(.gcc_compiled_long32)

.gcc_compiled_long64
 *(.gcc_compiled_long64)

.stab
 *(.stab)

.stabstr
 *(.stabstr)

.stab.excl
 *(.stab.excl)

.stab.exclstr
 *(.stab.exclstr)

.stab.index
 *(.stab.index)

.stab.indexstr
 *(.stab.indexstr)

.comment        0x00000000      0x1e1
 *(.comment)
 .comment       0x00000000       0x3c build/pic32mx_sk/production/_ext/1764187882/bsp.o
                                 0x3d (size before relaxing)
 .comment       0x00000000       0x3d build/pic32mx_sk/production/_ext/1458591747/sys_clk_pic32mx.o
 .comment       0x00000000       0x3d build/pic32mx_sk/production/_ext/374885412/sys_devcon.o
 .comment       0x00000000       0x3d build/pic32mx_sk/production/_ext/374885412/sys_devcon_pic32mx.o
 .comment       0x00000000       0x3d build/pic32mx_sk/production/_ext/1255054701/sys_ports_static.o
 .comment       0x00000000       0x3d build/pic32mx_sk/production/_ext/351744058/system_init.o
 .comment       0x00000000       0x3d build/pic32mx_sk/production/_ext/351744058/system_interrupt.o
 .comment       0x00000000       0x3d build/pic32mx_sk/production/_ext/351744058/system_exceptions.o
 .comment       0x00000000       0x3d build/pic32mx_sk/production/_ext/351744058/system_tasks.o
 .comment       0x00000000       0x3d build/pic32mx_sk/production/_ext/351744058/rtos_hooks.o
 .comment       0x00000000       0x3d build/pic32mx_sk/production/_ext/1360937237/app.o
 .comment       0x00000000       0x3d build/pic32mx_sk/production/_ext/1360937237/app1.o
 .comment       0x00000000       0x3d build/pic32mx_sk/production/_ext/1360937237/app2.o
 .comment       0x00000000       0x3d build/pic32mx_sk/production/_ext/1360937237/app3.o
 .comment       0x00000000       0x3d build/pic32mx_sk/production/_ext/1360937237/main.o
 .comment       0x00000000       0x3d build/pic32mx_sk/production/_ext/2067596619/osal_freertos.o
 .comment       0x00000000       0x3d build/pic32mx_sk/production/_ext/711155467/sys_int_pic32.o
 .comment       0x00000000       0x3d build/pic32mx_sk/production/_ext/427228813/heap_1.o
 .comment       0x00000000       0x3d build/pic32mx_sk/production/_ext/789006650/port.o
 .comment       0x00000000       0x3d build/pic32mx_sk/production/_ext/161854096/croutine.o
 .comment       0x00000000       0x3d build/pic32mx_sk/production/_ext/161854096/list.o
 .comment       0x00000000       0x3d build/pic32mx_sk/production/_ext/161854096/queue.o
 .comment       0x00000000       0x3d build/pic32mx_sk/production/_ext/161854096/tasks.o
 .comment       0x00000000       0x3d build/pic32mx_sk/production/_ext/161854096/timers.o
 .comment       0x00000000       0x3d build/pic32mx_sk/production/_ext/161854096/event_groups.o
 .comment       0x00000000       0x3d build/pic32mx_sk/production/_ext/161854096/stream_buffer.o
 .comment       0x00000000       0x3d build/pic32mx_sk/production/_ext/1360937237/io_setup.o
 .comment       0x00000000       0x3d ..\..\..\..\..\..\..\..\shiro019_accelerometer_spi.X\dist\default\production\shiro019_accelerometer_spi.X.a(accel_define.o)
 .comment       0x00000000       0x3d ..\..\..\..\..\..\..\..\shiro019_accelerometer_spi.X\dist\default\production\shiro019_accelerometer_spi.X.a(accel_read_x.o)
 .comment       0x00000000       0x3d ..\..\..\..\..\..\..\..\shiro019_accelerometer_spi.X\dist\default\production\shiro019_accelerometer_spi.X.a(accel_read_y.o)
 .comment       0x00000000       0x3d ..\..\..\..\..\..\..\..\shiro019_accelerometer_spi.X\dist\default\production\shiro019_accelerometer_spi.X.a(accel_setup.o)
 .comment       0x00000000       0x3d ..\..\..\..\..\..\..\..\shiro019_accelerometer_spi.X\dist\default\production\shiro019_accelerometer_spi.X.a(spi2_read_register.o)
 .comment       0x00000000       0x3d ..\..\..\..\..\..\..\..\shiro019_accelerometer_spi.X\dist\default\production\shiro019_accelerometer_spi.X.a(spi2_setup.o)
 .comment       0x00000000       0x3d ..\..\..\..\..\..\..\..\shiro019_accelerometer_spi.X\dist\default\production\shiro019_accelerometer_spi.X.a(spi2_write_register.o)
 .comment       0x0000003c       0x18 c:/program files (x86)/microchip/xc32/v2.30/bin/bin/../../lib/gcc/pic32mx/4.8.3/../../../../pic32mx/lib\libpic32.a(memset.o)
                                 0x19 (size before relaxing)
 .comment       0x00000000       0x3d c:/program files (x86)/microchip/xc32/v2.30/bin/bin/../../lib/gcc/pic32mx/4.8.3/../../../../pic32mx/lib\libpic32.a(default-bootstrap-exception-handler.o)
 .comment       0x00000000       0x3d c:/program files (x86)/microchip/xc32/v2.30/bin/bin/../../lib/gcc/pic32mx/4.8.3/../../../../pic32mx/lib\libpic32.a(default-on-reset.o)
 .comment       0x00000000       0x3d c:/program files (x86)/microchip/xc32/v2.30/bin/bin/../../lib/gcc/pic32mx/4.8.3/../../../../pic32mx/lib\libpic32.a(default-on-bootstrap.o)
 .comment       0x00000000       0x3d c:/program files (x86)/microchip/xc32/v2.30/bin/bin/../../lib/gcc/pic32mx/4.8.3/../../../../pic32mx/lib\libpic32.a(xc32_uart.o)
 .comment       0x00000000       0x3d c:/program files (x86)/microchip/xc32/v2.30/bin/bin/../../lib/gcc/pic32mx/4.8.3/../../../../pic32mx/lib\libpic32.a(defaultinterrupt.o)
 .comment       0x00000000       0x3d c:/program files (x86)/microchip/xc32/v2.30/bin/bin/../../lib/gcc/pic32mx/4.8.3/../../../../pic32mx/lib\libc.a(putchar.o)
 .comment       0x00000000       0x3d c:/program files (x86)/microchip/xc32/v2.30/bin/bin/../../lib/gcc/pic32mx/4.8.3/../../../../pic32mx/lib\libc.a(printf_fF.eo)
 .comment       0x00000000       0x3d c:/program files (x86)/microchip/xc32/v2.30/bin/bin/../../lib/gcc/pic32mx/4.8.3/../../../../pic32mx/lib\libc.a(printf_s.eo)
 .comment       0x00000000       0x3d c:/program files (x86)/microchip/xc32/v2.30/bin/bin/../../lib/gcc/pic32mx/4.8.3/../../../../pic32mx/lib\libc.a(_iob.o)
 .comment       0x00000000       0x3d c:/program files (x86)/microchip/xc32/v2.30/bin/bin/../../lib/gcc/pic32mx/4.8.3/../../../../pic32mx/lib\libc.a(_fputc_simple.o)
 .comment       0x00000000       0x3d c:/program files (x86)/microchip/xc32/v2.30/bin/bin/../../lib/gcc/pic32mx/4.8.3/../../../../pic32mx/lib\libc.a(_flsbuf_simple.o)
 .comment       0x00000054       0x4e c:/program files (x86)/microchip/xc32/v2.30/bin/bin/../../lib/gcc/pic32mx/4.8.3/../../../../pic32mx/lib\libc.a(ctype.o)
                                 0x8b (size before relaxing)
 .comment       0x00000000       0x3d c:/program files (x86)/microchip/xc32/v2.30/bin/bin/../../lib/gcc/pic32mx/4.8.3/../../../../pic32mx/lib\libc.a(ldpowers.o)
 .comment       0x00000000       0x3d c:/program files (x86)/microchip/xc32/v2.30/bin/bin/../../lib/gcc/pic32mx/4.8.3/../../../../pic32mx/lib\libc.a(doprnt_fFs.eo)
 .comment       0x000000a2       0x9f c:/program files (x86)/microchip/xc32/v2.30/bin/bin/../../lib/gcc/pic32mx/4.8.3/../../../../pic32mx/lib\libe.a(_fixunsdfdi.o)
                                 0xdc (size before relaxing)
 .comment       0x00000141       0x50 c:/program files (x86)/microchip/xc32/v2.30/bin/bin/../../lib/gcc/pic32mx/4.8.3/../../../../pic32mx/lib\libe.a(_orderdf2.o)
                                 0xdb (size before relaxing)
 .comment       0x00000191       0x50 c:/program files (x86)/microchip/xc32/v2.30/bin/bin/../../lib/gcc/pic32mx/4.8.3/../../../../pic32mx/lib\libe.a(_fixdfdi.o)
                                 0xdb (size before relaxing)
 .comment       0x00000000       0x3d c:/program files (x86)/microchip/xc32/v2.30/bin/bin/../../lib/gcc/pic32mx/4.8.3\libgcc.a(_floatundidf.o)
 .comment       0x00000000       0x3d c:/program files (x86)/microchip/xc32/v2.30/bin/bin/../../lib/gcc/pic32mx/4.8.3\libgcc.a(_udivdi3.o)
 .comment       0x00000000       0x3d c:/program files (x86)/microchip/xc32/v2.30/bin/bin/../../lib/gcc/pic32mx/4.8.3\libgcc.a(_umoddi3.o)
 .comment       0x00000000       0x3d c:/program files (x86)/microchip/xc32/v2.30/bin/bin/../../lib/gcc/pic32mx/4.8.3\libgcc.a(floatunsidf.o)
 .comment       0x00000000       0x3d c:/program files (x86)/microchip/xc32/v2.30/bin/bin/../../lib/gcc/pic32mx/4.8.3/../../../../pic32mx/lib\libpic32.a(write.o)
 .comment       0x00000000       0x3d c:/program files (x86)/microchip/xc32/v2.30/bin/bin/../../lib/gcc/pic32mx/4.8.3/../../../../pic32mx/lib\libpic32.a(_mon_putc.o)

.debug
 *(.debug)

.line
 *(.line)

.debug_srcinfo
 *(.debug_srcinfo)

.debug_sfnames
 *(.debug_sfnames)

.debug_aranges  0x00000000      0xd18
 *(.debug_aranges)
 .debug_aranges
                0x00000000       0x68 build/pic32mx_sk/production/_ext/1764187882/bsp.o
 .debug_aranges
                0x00000068       0x50 build/pic32mx_sk/production/_ext/1458591747/sys_clk_pic32mx.o
 .debug_aranges
                0x000000b8       0x78 build/pic32mx_sk/production/_ext/374885412/sys_devcon.o
 .debug_aranges
                0x00000130       0x20 build/pic32mx_sk/production/_ext/374885412/sys_devcon_pic32mx.o
 .debug_aranges
                0x00000150      0x148 build/pic32mx_sk/production/_ext/1255054701/sys_ports_static.o
 .debug_aranges
                0x00000298       0x20 build/pic32mx_sk/production/_ext/351744058/system_init.o
 .debug_aranges
                0x000002b8       0x18 build/pic32mx_sk/production/_ext/351744058/system_interrupt.o
 .debug_aranges
                0x000002d0       0x20 build/pic32mx_sk/production/_ext/351744058/system_exceptions.o
 .debug_aranges
                0x000002f0       0x48 build/pic32mx_sk/production/_ext/351744058/system_tasks.o
 .debug_aranges
                0x00000338       0x40 build/pic32mx_sk/production/_ext/351744058/rtos_hooks.o
 .debug_aranges
                0x00000378       0x28 build/pic32mx_sk/production/_ext/1360937237/app.o
 .debug_aranges
                0x000003a0       0x28 build/pic32mx_sk/production/_ext/1360937237/app1.o
 .debug_aranges
                0x000003c8       0x38 build/pic32mx_sk/production/_ext/1360937237/app2.o
 .debug_aranges
                0x00000400       0x28 build/pic32mx_sk/production/_ext/1360937237/app3.o
 .debug_aranges
                0x00000428       0x20 build/pic32mx_sk/production/_ext/1360937237/main.o
 .debug_aranges
                0x00000448       0x88 build/pic32mx_sk/production/_ext/2067596619/osal_freertos.o
 .debug_aranges
                0x000004d0       0x48 build/pic32mx_sk/production/_ext/711155467/sys_int_pic32.o
 .debug_aranges
                0x00000518       0x38 build/pic32mx_sk/production/_ext/427228813/heap_1.o
 .debug_aranges
                0x00000550       0x58 build/pic32mx_sk/production/_ext/789006650/port.o
 .debug_aranges
                0x000005a8       0x20 build/pic32mx_sk/production/_ext/789006650/port_asm.o
 .debug_aranges
                0x000005c8       0x18 build/pic32mx_sk/production/_ext/161854096/croutine.o
 .debug_aranges
                0x000005e0       0x40 build/pic32mx_sk/production/_ext/161854096/list.o
 .debug_aranges
                0x00000620       0xc8 build/pic32mx_sk/production/_ext/161854096/queue.o
 .debug_aranges
                0x000006e8      0x188 build/pic32mx_sk/production/_ext/161854096/tasks.o
 .debug_aranges
                0x00000870       0x18 build/pic32mx_sk/production/_ext/161854096/timers.o
 .debug_aranges
                0x00000888       0x60 build/pic32mx_sk/production/_ext/161854096/event_groups.o
 .debug_aranges
                0x000008e8       0xb8 build/pic32mx_sk/production/_ext/161854096/stream_buffer.o
 .debug_aranges
                0x000009a0       0x30 build/pic32mx_sk/production/_ext/1360937237/io_setup.o
 .debug_aranges
                0x000009d0       0x20 ..\..\..\..\..\..\..\..\shiro019_accelerometer_spi.X\dist\default\production\shiro019_accelerometer_spi.X.a(accel_define.o)
 .debug_aranges
                0x000009f0       0x20 ..\..\..\..\..\..\..\..\shiro019_accelerometer_spi.X\dist\default\production\shiro019_accelerometer_spi.X.a(accel_read_x.o)
 .debug_aranges
                0x00000a10       0x20 ..\..\..\..\..\..\..\..\shiro019_accelerometer_spi.X\dist\default\production\shiro019_accelerometer_spi.X.a(accel_read_y.o)
 .debug_aranges
                0x00000a30       0x20 ..\..\..\..\..\..\..\..\shiro019_accelerometer_spi.X\dist\default\production\shiro019_accelerometer_spi.X.a(accel_setup.o)
 .debug_aranges
                0x00000a50       0x20 ..\..\..\..\..\..\..\..\shiro019_accelerometer_spi.X\dist\default\production\shiro019_accelerometer_spi.X.a(spi2_read_register.o)
 .debug_aranges
                0x00000a70       0x20 ..\..\..\..\..\..\..\..\shiro019_accelerometer_spi.X\dist\default\production\shiro019_accelerometer_spi.X.a(spi2_setup.o)
 .debug_aranges
                0x00000a90       0x20 ..\..\..\..\..\..\..\..\shiro019_accelerometer_spi.X\dist\default\production\shiro019_accelerometer_spi.X.a(spi2_write_register.o)
 .debug_aranges
                0x00000ab0       0x20 c:/program files (x86)/microchip/xc32/v2.30/bin/bin/../../lib/gcc/pic32mx/4.8.3/../../../../pic32mx/lib\libpic32.a(default-bootstrap-exception-handler.o)
 .debug_aranges
                0x00000ad0       0x20 c:/program files (x86)/microchip/xc32/v2.30/bin/bin/../../lib/gcc/pic32mx/4.8.3/../../../../pic32mx/lib\libpic32.a(default-on-reset.o)
 .debug_aranges
                0x00000af0       0x20 c:/program files (x86)/microchip/xc32/v2.30/bin/bin/../../lib/gcc/pic32mx/4.8.3/../../../../pic32mx/lib\libpic32.a(default-on-bootstrap.o)
 .debug_aranges
                0x00000b10       0x20 c:/program files (x86)/microchip/xc32/v2.30/bin/bin/../../lib/gcc/pic32mx/4.8.3/../../../../pic32mx/lib\libpic32.a(defaultinterrupt.o)
 .debug_aranges
                0x00000b30       0x20 c:/program files (x86)/microchip/xc32/v2.30/bin/bin/../../lib/gcc/pic32mx/4.8.3/../../../../pic32mx/lib\libc.a(putchar.o)
 .debug_aranges
                0x00000b50       0x20 c:/program files (x86)/microchip/xc32/v2.30/bin/bin/../../lib/gcc/pic32mx/4.8.3/../../../../pic32mx/lib\libc.a(printf_fF.eo)
 .debug_aranges
                0x00000b70       0x20 c:/program files (x86)/microchip/xc32/v2.30/bin/bin/../../lib/gcc/pic32mx/4.8.3/../../../../pic32mx/lib\libc.a(printf_s.eo)
 .debug_aranges
                0x00000b90       0x20 c:/program files (x86)/microchip/xc32/v2.30/bin/bin/../../lib/gcc/pic32mx/4.8.3/../../../../pic32mx/lib\libc.a(_fputc_simple.o)
 .debug_aranges
                0x00000bb0       0x20 c:/program files (x86)/microchip/xc32/v2.30/bin/bin/../../lib/gcc/pic32mx/4.8.3/../../../../pic32mx/lib\libc.a(_flsbuf_simple.o)
 .debug_aranges
                0x00000bd0       0x28 c:/program files (x86)/microchip/xc32/v2.30/bin/bin/../../lib/gcc/pic32mx/4.8.3/../../../../pic32mx/lib\libc.a(doprnt_fFs.eo)
 .debug_aranges
                0x00000bf8       0x20 c:/program files (x86)/microchip/xc32/v2.30/bin/bin/../../lib/gcc/pic32mx/4.8.3/../../../../pic32mx/lib\libe.a(_fixunsdfdi.o)
 .debug_aranges
                0x00000c18       0x20 c:/program files (x86)/microchip/xc32/v2.30/bin/bin/../../lib/gcc/pic32mx/4.8.3/../../../../pic32mx/lib\libe.a(_orderdf2.o)
 .debug_aranges
                0x00000c38       0x20 c:/program files (x86)/microchip/xc32/v2.30/bin/bin/../../lib/gcc/pic32mx/4.8.3/../../../../pic32mx/lib\libe.a(_fixdfdi.o)
 .debug_aranges
                0x00000c58       0x20 c:/program files (x86)/microchip/xc32/v2.30/bin/bin/../../lib/gcc/pic32mx/4.8.3\libgcc.a(_floatundidf.o)
 .debug_aranges
                0x00000c78       0x20 c:/program files (x86)/microchip/xc32/v2.30/bin/bin/../../lib/gcc/pic32mx/4.8.3\libgcc.a(_udivdi3.o)
 .debug_aranges
                0x00000c98       0x20 c:/program files (x86)/microchip/xc32/v2.30/bin/bin/../../lib/gcc/pic32mx/4.8.3\libgcc.a(_umoddi3.o)
 .debug_aranges
                0x00000cb8       0x20 c:/program files (x86)/microchip/xc32/v2.30/bin/bin/../../lib/gcc/pic32mx/4.8.3\libgcc.a(floatunsidf.o)
 .debug_aranges
                0x00000cd8       0x20 c:/program files (x86)/microchip/xc32/v2.30/bin/bin/../../lib/gcc/pic32mx/4.8.3/../../../../pic32mx/lib\libpic32.a(write.o)
 .debug_aranges
                0x00000cf8       0x20 c:/program files (x86)/microchip/xc32/v2.30/bin/bin/../../lib/gcc/pic32mx/4.8.3/../../../../pic32mx/lib\libpic32.a(_mon_putc.o)

.debug_pubnames
 *(.debug_pubnames)

.debug_info     0x00000000    0x20df4
 *(.debug_info .gnu.linkonce.wi.*)
 .debug_info    0x00000000     0x12e3 build/pic32mx_sk/production/_ext/1764187882/bsp.o
 .debug_info    0x000012e3     0x170d build/pic32mx_sk/production/_ext/1458591747/sys_clk_pic32mx.o
 .debug_info    0x000029f0     0x19e9 build/pic32mx_sk/production/_ext/374885412/sys_devcon.o
 .debug_info    0x000043d9     0x1b05 build/pic32mx_sk/production/_ext/374885412/sys_devcon_pic32mx.o
 .debug_info    0x00005ede     0x458f build/pic32mx_sk/production/_ext/1255054701/sys_ports_static.o
 .debug_info    0x0000a46d      0xcef build/pic32mx_sk/production/_ext/351744058/system_init.o
 .debug_info    0x0000b15c      0xb4e build/pic32mx_sk/production/_ext/351744058/system_interrupt.o
 .debug_info    0x0000bcaa      0xbfe build/pic32mx_sk/production/_ext/351744058/system_exceptions.o
 .debug_info    0x0000c8a8      0xede build/pic32mx_sk/production/_ext/351744058/system_tasks.o
 .debug_info    0x0000d786      0x367 build/pic32mx_sk/production/_ext/351744058/rtos_hooks.o
 .debug_info    0x0000daed      0xe28 build/pic32mx_sk/production/_ext/1360937237/app.o
 .debug_info    0x0000e915      0xf7c build/pic32mx_sk/production/_ext/1360937237/app1.o
 .debug_info    0x0000f891     0x14a7 build/pic32mx_sk/production/_ext/1360937237/app2.o
 .debug_info    0x00010d38      0xe45 build/pic32mx_sk/production/_ext/1360937237/app3.o
 .debug_info    0x00011b7d      0x1c7 build/pic32mx_sk/production/_ext/1360937237/main.o
 .debug_info    0x00011d44      0xa42 build/pic32mx_sk/production/_ext/2067596619/osal_freertos.o
 .debug_info    0x00012786     0x1481 build/pic32mx_sk/production/_ext/711155467/sys_int_pic32.o
 .debug_info    0x00013c07      0x3db build/pic32mx_sk/production/_ext/427228813/heap_1.o
 .debug_info    0x00013fe2      0xed5 build/pic32mx_sk/production/_ext/789006650/port.o
 .debug_info    0x00014eb7       0xe0 build/pic32mx_sk/production/_ext/789006650/port_asm.o
 .debug_info    0x00014f97      0x192 build/pic32mx_sk/production/_ext/161854096/croutine.o
 .debug_info    0x00015129      0x495 build/pic32mx_sk/production/_ext/161854096/list.o
 .debug_info    0x000155be     0x21bd build/pic32mx_sk/production/_ext/161854096/queue.o
 .debug_info    0x0001777b     0x2ef5 build/pic32mx_sk/production/_ext/161854096/tasks.o
 .debug_info    0x0001a670      0x190 build/pic32mx_sk/production/_ext/161854096/timers.o
 .debug_info    0x0001a800      0xee0 build/pic32mx_sk/production/_ext/161854096/event_groups.o
 .debug_info    0x0001b6e0     0x1ab4 build/pic32mx_sk/production/_ext/161854096/stream_buffer.o
 .debug_info    0x0001d194      0x685 build/pic32mx_sk/production/_ext/1360937237/io_setup.o
 .debug_info    0x0001d819      0x16d ..\..\..\..\..\..\..\..\shiro019_accelerometer_spi.X\dist\default\production\shiro019_accelerometer_spi.X.a(accel_define.o)
 .debug_info    0x0001d986      0x1df ..\..\..\..\..\..\..\..\shiro019_accelerometer_spi.X\dist\default\production\shiro019_accelerometer_spi.X.a(accel_read_x.o)
 .debug_info    0x0001db65      0x1df ..\..\..\..\..\..\..\..\shiro019_accelerometer_spi.X\dist\default\production\shiro019_accelerometer_spi.X.a(accel_read_y.o)
 .debug_info    0x0001dd44      0x16e ..\..\..\..\..\..\..\..\shiro019_accelerometer_spi.X\dist\default\production\shiro019_accelerometer_spi.X.a(accel_setup.o)
 .debug_info    0x0001deb2      0x4a0 ..\..\..\..\..\..\..\..\shiro019_accelerometer_spi.X\dist\default\production\shiro019_accelerometer_spi.X.a(spi2_read_register.o)
 .debug_info    0x0001e352      0x7a3 ..\..\..\..\..\..\..\..\shiro019_accelerometer_spi.X\dist\default\production\shiro019_accelerometer_spi.X.a(spi2_setup.o)
 .debug_info    0x0001eaf5      0x49d ..\..\..\..\..\..\..\..\shiro019_accelerometer_spi.X\dist\default\production\shiro019_accelerometer_spi.X.a(spi2_write_register.o)
 .debug_info    0x0001ef92       0xf4 c:/program files (x86)/microchip/xc32/v2.30/bin/bin/../../lib/gcc/pic32mx/4.8.3/../../../../pic32mx/lib\libpic32.a(default-bootstrap-exception-handler.o)
 .debug_info    0x0001f086       0xcd c:/program files (x86)/microchip/xc32/v2.30/bin/bin/../../lib/gcc/pic32mx/4.8.3/../../../../pic32mx/lib\libpic32.a(default-on-reset.o)
 .debug_info    0x0001f153       0xd5 c:/program files (x86)/microchip/xc32/v2.30/bin/bin/../../lib/gcc/pic32mx/4.8.3/../../../../pic32mx/lib\libpic32.a(default-on-bootstrap.o)
 .debug_info    0x0001f228       0xe7 c:/program files (x86)/microchip/xc32/v2.30/bin/bin/../../lib/gcc/pic32mx/4.8.3/../../../../pic32mx/lib\libpic32.a(defaultinterrupt.o)
 .debug_info    0x0001f30f       0xc6 c:/program files (x86)/microchip/xc32/v2.30/bin/bin/../../lib/gcc/pic32mx/4.8.3/../../../../pic32mx/lib\libc.a(putchar.o)
 .debug_info    0x0001f3d5       0xc8 c:/program files (x86)/microchip/xc32/v2.30/bin/bin/../../lib/gcc/pic32mx/4.8.3/../../../../pic32mx/lib\libc.a(printf_fF.eo)
 .debug_info    0x0001f49d       0xc7 c:/program files (x86)/microchip/xc32/v2.30/bin/bin/../../lib/gcc/pic32mx/4.8.3/../../../../pic32mx/lib\libc.a(printf_s.eo)
 .debug_info    0x0001f564       0xc2 c:/program files (x86)/microchip/xc32/v2.30/bin/bin/../../lib/gcc/pic32mx/4.8.3/../../../../pic32mx/lib\libc.a(_fputc_simple.o)
 .debug_info    0x0001f626       0xc5 c:/program files (x86)/microchip/xc32/v2.30/bin/bin/../../lib/gcc/pic32mx/4.8.3/../../../../pic32mx/lib\libc.a(_flsbuf_simple.o)
 .debug_info    0x0001f6eb       0xf3 c:/program files (x86)/microchip/xc32/v2.30/bin/bin/../../lib/gcc/pic32mx/4.8.3/../../../../pic32mx/lib\libc.a(doprnt_fFs.eo)
 .debug_info    0x0001f7de       0xce c:/program files (x86)/microchip/xc32/v2.30/bin/bin/../../lib/gcc/pic32mx/4.8.3/../../../../pic32mx/lib\libe.a(_fixunsdfdi.o)
 .debug_info    0x0001f8ac       0xba c:/program files (x86)/microchip/xc32/v2.30/bin/bin/../../lib/gcc/pic32mx/4.8.3/../../../../pic32mx/lib\libe.a(_orderdf2.o)
 .debug_info    0x0001f966       0xb9 c:/program files (x86)/microchip/xc32/v2.30/bin/bin/../../lib/gcc/pic32mx/4.8.3/../../../../pic32mx/lib\libe.a(_fixdfdi.o)
 .debug_info    0x0001fa1f      0x245 c:/program files (x86)/microchip/xc32/v2.30/bin/bin/../../lib/gcc/pic32mx/4.8.3\libgcc.a(_floatundidf.o)
 .debug_info    0x0001fc64      0x74b c:/program files (x86)/microchip/xc32/v2.30/bin/bin/../../lib/gcc/pic32mx/4.8.3\libgcc.a(_udivdi3.o)
 .debug_info    0x000203af      0x788 c:/program files (x86)/microchip/xc32/v2.30/bin/bin/../../lib/gcc/pic32mx/4.8.3\libgcc.a(_umoddi3.o)
 .debug_info    0x00020b37      0x137 c:/program files (x86)/microchip/xc32/v2.30/bin/bin/../../lib/gcc/pic32mx/4.8.3\libgcc.a(floatunsidf.o)
 .debug_info    0x00020c6e       0xbf c:/program files (x86)/microchip/xc32/v2.30/bin/bin/../../lib/gcc/pic32mx/4.8.3/../../../../pic32mx/lib\libpic32.a(write.o)
 .debug_info    0x00020d2d       0xc7 c:/program files (x86)/microchip/xc32/v2.30/bin/bin/../../lib/gcc/pic32mx/4.8.3/../../../../pic32mx/lib\libpic32.a(_mon_putc.o)

.debug_abbrev   0x00000000     0x39cc
 *(.debug_abbrev)
 .debug_abbrev  0x00000000      0x28a build/pic32mx_sk/production/_ext/1764187882/bsp.o
 .debug_abbrev  0x0000028a      0x26b build/pic32mx_sk/production/_ext/1458591747/sys_clk_pic32mx.o
 .debug_abbrev  0x000004f5      0x288 build/pic32mx_sk/production/_ext/374885412/sys_devcon.o
 .debug_abbrev  0x0000077d      0x20f build/pic32mx_sk/production/_ext/374885412/sys_devcon_pic32mx.o
 .debug_abbrev  0x0000098c      0x2a2 build/pic32mx_sk/production/_ext/1255054701/sys_ports_static.o
 .debug_abbrev  0x00000c2e      0x17c build/pic32mx_sk/production/_ext/351744058/system_init.o
 .debug_abbrev  0x00000daa       0x97 build/pic32mx_sk/production/_ext/351744058/system_interrupt.o
 .debug_abbrev  0x00000e41       0xe6 build/pic32mx_sk/production/_ext/351744058/system_exceptions.o
 .debug_abbrev  0x00000f27      0x16f build/pic32mx_sk/production/_ext/351744058/system_tasks.o
 .debug_abbrev  0x00001096       0xdf build/pic32mx_sk/production/_ext/351744058/rtos_hooks.o
 .debug_abbrev  0x00001175      0x198 build/pic32mx_sk/production/_ext/1360937237/app.o
 .debug_abbrev  0x0000130d      0x1ce build/pic32mx_sk/production/_ext/1360937237/app1.o
 .debug_abbrev  0x000014db      0x20c build/pic32mx_sk/production/_ext/1360937237/app2.o
 .debug_abbrev  0x000016e7      0x18b build/pic32mx_sk/production/_ext/1360937237/app3.o
 .debug_abbrev  0x00001872       0x93 build/pic32mx_sk/production/_ext/1360937237/main.o
 .debug_abbrev  0x00001905      0x1fe build/pic32mx_sk/production/_ext/2067596619/osal_freertos.o
 .debug_abbrev  0x00001b03      0x237 build/pic32mx_sk/production/_ext/711155467/sys_int_pic32.o
 .debug_abbrev  0x00001d3a      0x166 build/pic32mx_sk/production/_ext/427228813/heap_1.o
 .debug_abbrev  0x00001ea0      0x2e3 build/pic32mx_sk/production/_ext/789006650/port.o
 .debug_abbrev  0x00002183       0x14 build/pic32mx_sk/production/_ext/789006650/port_asm.o
 .debug_abbrev  0x00002197       0x1b build/pic32mx_sk/production/_ext/161854096/croutine.o
 .debug_abbrev  0x000021b2       0xf8 build/pic32mx_sk/production/_ext/161854096/list.o
 .debug_abbrev  0x000022aa      0x33b build/pic32mx_sk/production/_ext/161854096/queue.o
 .debug_abbrev  0x000025e5      0x3c3 build/pic32mx_sk/production/_ext/161854096/tasks.o
 .debug_abbrev  0x000029a8       0x1b build/pic32mx_sk/production/_ext/161854096/timers.o
 .debug_abbrev  0x000029c3      0x27d build/pic32mx_sk/production/_ext/161854096/event_groups.o
 .debug_abbrev  0x00002c40      0x2bd build/pic32mx_sk/production/_ext/161854096/stream_buffer.o
 .debug_abbrev  0x00002efd       0xf6 build/pic32mx_sk/production/_ext/1360937237/io_setup.o
 .debug_abbrev  0x00002ff3       0x5e ..\..\..\..\..\..\..\..\shiro019_accelerometer_spi.X\dist\default\production\shiro019_accelerometer_spi.X.a(accel_define.o)
 .debug_abbrev  0x00003051       0x6f ..\..\..\..\..\..\..\..\shiro019_accelerometer_spi.X\dist\default\production\shiro019_accelerometer_spi.X.a(accel_read_x.o)
 .debug_abbrev  0x000030c0       0x6f ..\..\..\..\..\..\..\..\shiro019_accelerometer_spi.X\dist\default\production\shiro019_accelerometer_spi.X.a(accel_read_y.o)
 .debug_abbrev  0x0000312f       0x4d ..\..\..\..\..\..\..\..\shiro019_accelerometer_spi.X\dist\default\production\shiro019_accelerometer_spi.X.a(accel_setup.o)
 .debug_abbrev  0x0000317c       0xeb ..\..\..\..\..\..\..\..\shiro019_accelerometer_spi.X\dist\default\production\shiro019_accelerometer_spi.X.a(spi2_read_register.o)
 .debug_abbrev  0x00003267       0xb3 ..\..\..\..\..\..\..\..\shiro019_accelerometer_spi.X\dist\default\production\shiro019_accelerometer_spi.X.a(spi2_setup.o)
 .debug_abbrev  0x0000331a       0xe9 ..\..\..\..\..\..\..\..\shiro019_accelerometer_spi.X\dist\default\production\shiro019_accelerometer_spi.X.a(spi2_write_register.o)
 .debug_abbrev  0x00003403       0x28 c:/program files (x86)/microchip/xc32/v2.30/bin/bin/../../lib/gcc/pic32mx/4.8.3/../../../../pic32mx/lib\libpic32.a(default-bootstrap-exception-handler.o)
 .debug_abbrev  0x0000342b       0x28 c:/program files (x86)/microchip/xc32/v2.30/bin/bin/../../lib/gcc/pic32mx/4.8.3/../../../../pic32mx/lib\libpic32.a(default-on-reset.o)
 .debug_abbrev  0x00003453       0x28 c:/program files (x86)/microchip/xc32/v2.30/bin/bin/../../lib/gcc/pic32mx/4.8.3/../../../../pic32mx/lib\libpic32.a(default-on-bootstrap.o)
 .debug_abbrev  0x0000347b       0x28 c:/program files (x86)/microchip/xc32/v2.30/bin/bin/../../lib/gcc/pic32mx/4.8.3/../../../../pic32mx/lib\libpic32.a(defaultinterrupt.o)
 .debug_abbrev  0x000034a3       0x28 c:/program files (x86)/microchip/xc32/v2.30/bin/bin/../../lib/gcc/pic32mx/4.8.3/../../../../pic32mx/lib\libc.a(putchar.o)
 .debug_abbrev  0x000034cb       0x28 c:/program files (x86)/microchip/xc32/v2.30/bin/bin/../../lib/gcc/pic32mx/4.8.3/../../../../pic32mx/lib\libc.a(printf_fF.eo)
 .debug_abbrev  0x000034f3       0x28 c:/program files (x86)/microchip/xc32/v2.30/bin/bin/../../lib/gcc/pic32mx/4.8.3/../../../../pic32mx/lib\libc.a(printf_s.eo)
 .debug_abbrev  0x0000351b       0x28 c:/program files (x86)/microchip/xc32/v2.30/bin/bin/../../lib/gcc/pic32mx/4.8.3/../../../../pic32mx/lib\libc.a(_fputc_simple.o)
 .debug_abbrev  0x00003543       0x28 c:/program files (x86)/microchip/xc32/v2.30/bin/bin/../../lib/gcc/pic32mx/4.8.3/../../../../pic32mx/lib\libc.a(_flsbuf_simple.o)
 .debug_abbrev  0x0000356b       0x45 c:/program files (x86)/microchip/xc32/v2.30/bin/bin/../../lib/gcc/pic32mx/4.8.3/../../../../pic32mx/lib\libc.a(doprnt_fFs.eo)
 .debug_abbrev  0x000035b0       0x37 c:/program files (x86)/microchip/xc32/v2.30/bin/bin/../../lib/gcc/pic32mx/4.8.3/../../../../pic32mx/lib\libe.a(_fixunsdfdi.o)
 .debug_abbrev  0x000035e7       0x28 c:/program files (x86)/microchip/xc32/v2.30/bin/bin/../../lib/gcc/pic32mx/4.8.3/../../../../pic32mx/lib\libe.a(_orderdf2.o)
 .debug_abbrev  0x0000360f       0x28 c:/program files (x86)/microchip/xc32/v2.30/bin/bin/../../lib/gcc/pic32mx/4.8.3/../../../../pic32mx/lib\libe.a(_fixdfdi.o)
 .debug_abbrev  0x00003637       0x64 c:/program files (x86)/microchip/xc32/v2.30/bin/bin/../../lib/gcc/pic32mx/4.8.3\libgcc.a(_floatundidf.o)
 .debug_abbrev  0x0000369b      0x138 c:/program files (x86)/microchip/xc32/v2.30/bin/bin/../../lib/gcc/pic32mx/4.8.3\libgcc.a(_udivdi3.o)
 .debug_abbrev  0x000037d3      0x147 c:/program files (x86)/microchip/xc32/v2.30/bin/bin/../../lib/gcc/pic32mx/4.8.3\libgcc.a(_umoddi3.o)
 .debug_abbrev  0x0000391a       0x62 c:/program files (x86)/microchip/xc32/v2.30/bin/bin/../../lib/gcc/pic32mx/4.8.3\libgcc.a(floatunsidf.o)
 .debug_abbrev  0x0000397c       0x28 c:/program files (x86)/microchip/xc32/v2.30/bin/bin/../../lib/gcc/pic32mx/4.8.3/../../../../pic32mx/lib\libpic32.a(write.o)
 .debug_abbrev  0x000039a4       0x28 c:/program files (x86)/microchip/xc32/v2.30/bin/bin/../../lib/gcc/pic32mx/4.8.3/../../../../pic32mx/lib\libpic32.a(_mon_putc.o)

.debug_line     0x00000000     0x7225
 *(.debug_line)
 .debug_line    0x00000000      0x408 build/pic32mx_sk/production/_ext/1764187882/bsp.o
 .debug_line    0x00000408      0x4b8 build/pic32mx_sk/production/_ext/1458591747/sys_clk_pic32mx.o
 .debug_line    0x000008c0      0x742 build/pic32mx_sk/production/_ext/374885412/sys_devcon.o
 .debug_line    0x00001002      0x55b build/pic32mx_sk/production/_ext/374885412/sys_devcon_pic32mx.o
 .debug_line    0x0000155d      0x948 build/pic32mx_sk/production/_ext/1255054701/sys_ports_static.o
 .debug_line    0x00001ea5      0x32a build/pic32mx_sk/production/_ext/351744058/system_init.o
 .debug_line    0x000021cf       0xdc build/pic32mx_sk/production/_ext/351744058/system_interrupt.o
 .debug_line    0x000022ab      0x174 build/pic32mx_sk/production/_ext/351744058/system_exceptions.o
 .debug_line    0x0000241f      0x337 build/pic32mx_sk/production/_ext/351744058/system_tasks.o
 .debug_line    0x00002756      0x221 build/pic32mx_sk/production/_ext/351744058/rtos_hooks.o
 .debug_line    0x00002977      0x273 build/pic32mx_sk/production/_ext/1360937237/app.o
 .debug_line    0x00002bea      0x396 build/pic32mx_sk/production/_ext/1360937237/app1.o
 .debug_line    0x00002f80      0x3da build/pic32mx_sk/production/_ext/1360937237/app2.o
 .debug_line    0x0000335a      0x23e build/pic32mx_sk/production/_ext/1360937237/app3.o
 .debug_line    0x00003598       0xe5 build/pic32mx_sk/production/_ext/1360937237/main.o
 .debug_line    0x0000367d      0x332 build/pic32mx_sk/production/_ext/2067596619/osal_freertos.o
 .debug_line    0x000039af      0x339 build/pic32mx_sk/production/_ext/711155467/sys_int_pic32.o
 .debug_line    0x00003ce8      0x2d9 build/pic32mx_sk/production/_ext/427228813/heap_1.o
 .debug_line    0x00003fc1      0x300 build/pic32mx_sk/production/_ext/789006650/port.o
 .debug_line    0x000042c1      0x107 build/pic32mx_sk/production/_ext/789006650/port_asm.o
 .debug_line    0x000043c8       0x1d build/pic32mx_sk/production/_ext/161854096/croutine.o
 .debug_line    0x000043e5      0x217 build/pic32mx_sk/production/_ext/161854096/list.o
 .debug_line    0x000045fc      0x642 build/pic32mx_sk/production/_ext/161854096/queue.o
 .debug_line    0x00004c3e      0x908 build/pic32mx_sk/production/_ext/161854096/tasks.o
 .debug_line    0x00005546       0x1d build/pic32mx_sk/production/_ext/161854096/timers.o
 .debug_line    0x00005563      0x3f7 build/pic32mx_sk/production/_ext/161854096/event_groups.o
 .debug_line    0x0000595a      0x51a build/pic32mx_sk/production/_ext/161854096/stream_buffer.o
 .debug_line    0x00005e74      0x1ab build/pic32mx_sk/production/_ext/1360937237/io_setup.o
 .debug_line    0x0000601f       0x83 ..\..\..\..\..\..\..\..\shiro019_accelerometer_spi.X\dist\default\production\shiro019_accelerometer_spi.X.a(accel_define.o)
 .debug_line    0x000060a2       0xe2 ..\..\..\..\..\..\..\..\shiro019_accelerometer_spi.X\dist\default\production\shiro019_accelerometer_spi.X.a(accel_read_x.o)
 .debug_line    0x00006184       0xe2 ..\..\..\..\..\..\..\..\shiro019_accelerometer_spi.X\dist\default\production\shiro019_accelerometer_spi.X.a(accel_read_y.o)
 .debug_line    0x00006266       0x87 ..\..\..\..\..\..\..\..\shiro019_accelerometer_spi.X\dist\default\production\shiro019_accelerometer_spi.X.a(accel_setup.o)
 .debug_line    0x000062ed      0x155 ..\..\..\..\..\..\..\..\shiro019_accelerometer_spi.X\dist\default\production\shiro019_accelerometer_spi.X.a(spi2_read_register.o)
 .debug_line    0x00006442      0x155 ..\..\..\..\..\..\..\..\shiro019_accelerometer_spi.X\dist\default\production\shiro019_accelerometer_spi.X.a(spi2_setup.o)
 .debug_line    0x00006597      0x155 ..\..\..\..\..\..\..\..\shiro019_accelerometer_spi.X\dist\default\production\shiro019_accelerometer_spi.X.a(spi2_write_register.o)
 .debug_line    0x000066ec       0xa6 c:/program files (x86)/microchip/xc32/v2.30/bin/bin/../../lib/gcc/pic32mx/4.8.3/../../../../pic32mx/lib\libpic32.a(default-bootstrap-exception-handler.o)
 .debug_line    0x00006792       0x93 c:/program files (x86)/microchip/xc32/v2.30/bin/bin/../../lib/gcc/pic32mx/4.8.3/../../../../pic32mx/lib\libpic32.a(default-on-reset.o)
 .debug_line    0x00006825       0x97 c:/program files (x86)/microchip/xc32/v2.30/bin/bin/../../lib/gcc/pic32mx/4.8.3/../../../../pic32mx/lib\libpic32.a(default-on-bootstrap.o)
 .debug_line    0x000068bc        0x0 c:/program files (x86)/microchip/xc32/v2.30/bin/bin/../../lib/gcc/pic32mx/4.8.3/../../../../pic32mx/lib\libpic32.a(xc32_uart.o)
 .debug_line    0x000068bc       0xa5 c:/program files (x86)/microchip/xc32/v2.30/bin/bin/../../lib/gcc/pic32mx/4.8.3/../../../../pic32mx/lib\libpic32.a(defaultinterrupt.o)
 .debug_line    0x00006961       0x7f c:/program files (x86)/microchip/xc32/v2.30/bin/bin/../../lib/gcc/pic32mx/4.8.3/../../../../pic32mx/lib\libc.a(putchar.o)
 .debug_line    0x000069e0       0x7e c:/program files (x86)/microchip/xc32/v2.30/bin/bin/../../lib/gcc/pic32mx/4.8.3/../../../../pic32mx/lib\libc.a(printf_fF.eo)
 .debug_line    0x00006a5e       0x7e c:/program files (x86)/microchip/xc32/v2.30/bin/bin/../../lib/gcc/pic32mx/4.8.3/../../../../pic32mx/lib\libc.a(printf_s.eo)
 .debug_line    0x00006adc        0x0 c:/program files (x86)/microchip/xc32/v2.30/bin/bin/../../lib/gcc/pic32mx/4.8.3/../../../../pic32mx/lib\libc.a(_iob.o)
 .debug_line    0x00006adc       0x7d c:/program files (x86)/microchip/xc32/v2.30/bin/bin/../../lib/gcc/pic32mx/4.8.3/../../../../pic32mx/lib\libc.a(_fputc_simple.o)
 .debug_line    0x00006b59       0x7e c:/program files (x86)/microchip/xc32/v2.30/bin/bin/../../lib/gcc/pic32mx/4.8.3/../../../../pic32mx/lib\libc.a(_flsbuf_simple.o)
 .debug_line    0x00006bd7        0x0 c:/program files (x86)/microchip/xc32/v2.30/bin/bin/../../lib/gcc/pic32mx/4.8.3/../../../../pic32mx/lib\libc.a(ctype.o)
 .debug_line    0x00006bd7        0x0 c:/program files (x86)/microchip/xc32/v2.30/bin/bin/../../lib/gcc/pic32mx/4.8.3/../../../../pic32mx/lib\libc.a(ldpowers.o)
 .debug_line    0x00006bd7       0x7e c:/program files (x86)/microchip/xc32/v2.30/bin/bin/../../lib/gcc/pic32mx/4.8.3/../../../../pic32mx/lib\libc.a(doprnt_fFs.eo)
 .debug_line    0x00006c55       0x82 c:/program files (x86)/microchip/xc32/v2.30/bin/bin/../../lib/gcc/pic32mx/4.8.3/../../../../pic32mx/lib\libe.a(_fixunsdfdi.o)
 .debug_line    0x00006cd7       0x81 c:/program files (x86)/microchip/xc32/v2.30/bin/bin/../../lib/gcc/pic32mx/4.8.3/../../../../pic32mx/lib\libe.a(_orderdf2.o)
 .debug_line    0x00006d58       0x81 c:/program files (x86)/microchip/xc32/v2.30/bin/bin/../../lib/gcc/pic32mx/4.8.3/../../../../pic32mx/lib\libe.a(_fixdfdi.o)
 .debug_line    0x00006dd9       0xa5 c:/program files (x86)/microchip/xc32/v2.30/bin/bin/../../lib/gcc/pic32mx/4.8.3\libgcc.a(_floatundidf.o)
 .debug_line    0x00006e7e       0xf7 c:/program files (x86)/microchip/xc32/v2.30/bin/bin/../../lib/gcc/pic32mx/4.8.3\libgcc.a(_udivdi3.o)
 .debug_line    0x00006f75      0x109 c:/program files (x86)/microchip/xc32/v2.30/bin/bin/../../lib/gcc/pic32mx/4.8.3\libgcc.a(_umoddi3.o)
 .debug_line    0x0000707e       0x93 c:/program files (x86)/microchip/xc32/v2.30/bin/bin/../../lib/gcc/pic32mx/4.8.3\libgcc.a(floatunsidf.o)
 .debug_line    0x00007111       0x88 c:/program files (x86)/microchip/xc32/v2.30/bin/bin/../../lib/gcc/pic32mx/4.8.3/../../../../pic32mx/lib\libpic32.a(write.o)
 .debug_line    0x00007199       0x8c c:/program files (x86)/microchip/xc32/v2.30/bin/bin/../../lib/gcc/pic32mx/4.8.3/../../../../pic32mx/lib\libpic32.a(_mon_putc.o)

.debug_frame    0x00000000     0x1cb4
 *(.debug_frame)
 .debug_frame   0x00000000       0xbc build/pic32mx_sk/production/_ext/1764187882/bsp.o
 .debug_frame   0x000000bc       0xa4 build/pic32mx_sk/production/_ext/1458591747/sys_clk_pic32mx.o
 .debug_frame   0x00000160       0xf4 build/pic32mx_sk/production/_ext/374885412/sys_devcon.o
 .debug_frame   0x00000254       0x2c build/pic32mx_sk/production/_ext/374885412/sys_devcon_pic32mx.o
 .debug_frame   0x00000280      0x270 build/pic32mx_sk/production/_ext/1255054701/sys_ports_static.o
 .debug_frame   0x000004f0       0x2c build/pic32mx_sk/production/_ext/351744058/system_init.o
 .debug_frame   0x0000051c       0x28 build/pic32mx_sk/production/_ext/351744058/system_exceptions.o
 .debug_frame   0x00000544       0xa4 build/pic32mx_sk/production/_ext/351744058/system_tasks.o
 .debug_frame   0x000005e8       0x7c build/pic32mx_sk/production/_ext/351744058/rtos_hooks.o
 .debug_frame   0x00000664       0x48 build/pic32mx_sk/production/_ext/1360937237/app.o
 .debug_frame   0x000006ac       0x48 build/pic32mx_sk/production/_ext/1360937237/app1.o
 .debug_frame   0x000006f4       0x74 build/pic32mx_sk/production/_ext/1360937237/app2.o
 .debug_frame   0x00000768       0x3c build/pic32mx_sk/production/_ext/1360937237/app3.o
 .debug_frame   0x000007a4       0x28 build/pic32mx_sk/production/_ext/1360937237/main.o
 .debug_frame   0x000007cc      0x180 build/pic32mx_sk/production/_ext/2067596619/osal_freertos.o
 .debug_frame   0x0000094c       0xa0 build/pic32mx_sk/production/_ext/711155467/sys_int_pic32.o
 .debug_frame   0x000009ec       0x6c build/pic32mx_sk/production/_ext/427228813/heap_1.o
 .debug_frame   0x00000a58       0xdc build/pic32mx_sk/production/_ext/789006650/port.o
 .debug_frame   0x00000b34       0x60 build/pic32mx_sk/production/_ext/161854096/list.o
 .debug_frame   0x00000b94      0x2f0 build/pic32mx_sk/production/_ext/161854096/queue.o
 .debug_frame   0x00000e84      0x53c build/pic32mx_sk/production/_ext/161854096/tasks.o
 .debug_frame   0x000013c0      0x13c build/pic32mx_sk/production/_ext/161854096/event_groups.o
 .debug_frame   0x000014fc      0x2a8 build/pic32mx_sk/production/_ext/161854096/stream_buffer.o
 .debug_frame   0x000017a4       0x4c build/pic32mx_sk/production/_ext/1360937237/io_setup.o
 .debug_frame   0x000017f0       0x30 ..\..\..\..\..\..\..\..\shiro019_accelerometer_spi.X\dist\default\production\shiro019_accelerometer_spi.X.a(accel_define.o)
 .debug_frame   0x00001820       0x34 ..\..\..\..\..\..\..\..\shiro019_accelerometer_spi.X\dist\default\production\shiro019_accelerometer_spi.X.a(accel_read_x.o)
 .debug_frame   0x00001854       0x34 ..\..\..\..\..\..\..\..\shiro019_accelerometer_spi.X\dist\default\production\shiro019_accelerometer_spi.X.a(accel_read_y.o)
 .debug_frame   0x00001888       0x34 ..\..\..\..\..\..\..\..\shiro019_accelerometer_spi.X\dist\default\production\shiro019_accelerometer_spi.X.a(accel_setup.o)
 .debug_frame   0x000018bc       0x34 ..\..\..\..\..\..\..\..\shiro019_accelerometer_spi.X\dist\default\production\shiro019_accelerometer_spi.X.a(spi2_read_register.o)
 .debug_frame   0x000018f0       0x30 ..\..\..\..\..\..\..\..\shiro019_accelerometer_spi.X\dist\default\production\shiro019_accelerometer_spi.X.a(spi2_setup.o)
 .debug_frame   0x00001920       0x34 ..\..\..\..\..\..\..\..\shiro019_accelerometer_spi.X\dist\default\production\shiro019_accelerometer_spi.X.a(spi2_write_register.o)
 .debug_frame   0x00001954       0x2c c:/program files (x86)/microchip/xc32/v2.30/bin/bin/../../lib/gcc/pic32mx/4.8.3/../../../../pic32mx/lib\libpic32.a(default-bootstrap-exception-handler.o)
 .debug_frame   0x00001980       0x20 c:/program files (x86)/microchip/xc32/v2.30/bin/bin/../../lib/gcc/pic32mx/4.8.3/../../../../pic32mx/lib\libpic32.a(default-on-reset.o)
 .debug_frame   0x000019a0       0x20 c:/program files (x86)/microchip/xc32/v2.30/bin/bin/../../lib/gcc/pic32mx/4.8.3/../../../../pic32mx/lib\libpic32.a(default-on-bootstrap.o)
 .debug_frame   0x000019c0       0x20 c:/program files (x86)/microchip/xc32/v2.30/bin/bin/../../lib/gcc/pic32mx/4.8.3/../../../../pic32mx/lib\libpic32.a(defaultinterrupt.o)
 .debug_frame   0x000019e0       0x2c c:/program files (x86)/microchip/xc32/v2.30/bin/bin/../../lib/gcc/pic32mx/4.8.3/../../../../pic32mx/lib\libc.a(putchar.o)
 .debug_frame   0x00001a0c       0x2c c:/program files (x86)/microchip/xc32/v2.30/bin/bin/../../lib/gcc/pic32mx/4.8.3/../../../../pic32mx/lib\libc.a(printf_fF.eo)
 .debug_frame   0x00001a38       0x2c c:/program files (x86)/microchip/xc32/v2.30/bin/bin/../../lib/gcc/pic32mx/4.8.3/../../../../pic32mx/lib\libc.a(printf_s.eo)
 .debug_frame   0x00001a64       0x30 c:/program files (x86)/microchip/xc32/v2.30/bin/bin/../../lib/gcc/pic32mx/4.8.3/../../../../pic32mx/lib\libc.a(_fputc_simple.o)
 .debug_frame   0x00001a94       0x38 c:/program files (x86)/microchip/xc32/v2.30/bin/bin/../../lib/gcc/pic32mx/4.8.3/../../../../pic32mx/lib\libc.a(_flsbuf_simple.o)
 .debug_frame   0x00001acc       0x70 c:/program files (x86)/microchip/xc32/v2.30/bin/bin/../../lib/gcc/pic32mx/4.8.3/../../../../pic32mx/lib\libc.a(doprnt_fFs.eo)
 .debug_frame   0x00001b3c       0x34 c:/program files (x86)/microchip/xc32/v2.30/bin/bin/../../lib/gcc/pic32mx/4.8.3/../../../../pic32mx/lib\libe.a(_fixunsdfdi.o)
 .debug_frame   0x00001b70       0x20 c:/program files (x86)/microchip/xc32/v2.30/bin/bin/../../lib/gcc/pic32mx/4.8.3/../../../../pic32mx/lib\libe.a(_orderdf2.o)
 .debug_frame   0x00001b90       0x20 c:/program files (x86)/microchip/xc32/v2.30/bin/bin/../../lib/gcc/pic32mx/4.8.3/../../../../pic32mx/lib\libe.a(_fixdfdi.o)
 .debug_frame   0x00001bb0       0x2c c:/program files (x86)/microchip/xc32/v2.30/bin/bin/../../lib/gcc/pic32mx/4.8.3\libgcc.a(_floatundidf.o)
 .debug_frame   0x00001bdc       0x20 c:/program files (x86)/microchip/xc32/v2.30/bin/bin/../../lib/gcc/pic32mx/4.8.3\libgcc.a(_udivdi3.o)
 .debug_frame   0x00001bfc       0x20 c:/program files (x86)/microchip/xc32/v2.30/bin/bin/../../lib/gcc/pic32mx/4.8.3\libgcc.a(_umoddi3.o)
 .debug_frame   0x00001c1c       0x2c c:/program files (x86)/microchip/xc32/v2.30/bin/bin/../../lib/gcc/pic32mx/4.8.3\libgcc.a(floatunsidf.o)
 .debug_frame   0x00001c48       0x38 c:/program files (x86)/microchip/xc32/v2.30/bin/bin/../../lib/gcc/pic32mx/4.8.3/../../../../pic32mx/lib\libpic32.a(write.o)
 .debug_frame   0x00001c80       0x34 c:/program files (x86)/microchip/xc32/v2.30/bin/bin/../../lib/gcc/pic32mx/4.8.3/../../../../pic32mx/lib\libpic32.a(_mon_putc.o)

.debug_str      0x00000000      0x6ec
 *(.debug_str)
 .debug_str     0x00000000       0x15 build/pic32mx_sk/production/_ext/1764187882/bsp.o
 .debug_str     0x00000015       0x39 build/pic32mx_sk/production/_ext/1458591747/sys_clk_pic32mx.o
 .debug_str     0x0000004e       0x16 build/pic32mx_sk/production/_ext/374885412/sys_devcon.o
 .debug_str     0x00000064        0x6 build/pic32mx_sk/production/_ext/374885412/sys_devcon_pic32mx.o
 .debug_str     0x0000006a       0x98 build/pic32mx_sk/production/_ext/1255054701/sys_ports_static.o
 .debug_str     0x00000102        0x0 build/pic32mx_sk/production/_ext/351744058/system_init.o
 .debug_str     0x00000102        0x0 build/pic32mx_sk/production/_ext/351744058/system_interrupt.o
 .debug_str     0x00000102        0x0 build/pic32mx_sk/production/_ext/351744058/system_exceptions.o
 .debug_str     0x00000102        0x0 build/pic32mx_sk/production/_ext/351744058/system_tasks.o
 .debug_str     0x00000102        0x9 build/pic32mx_sk/production/_ext/351744058/rtos_hooks.o
 .debug_str     0x0000010b        0x0 build/pic32mx_sk/production/_ext/1360937237/app.o
 .debug_str     0x0000010b        0x0 build/pic32mx_sk/production/_ext/1360937237/app1.o
 .debug_str     0x0000010b        0x0 build/pic32mx_sk/production/_ext/1360937237/app2.o
 .debug_str     0x0000010b        0x0 build/pic32mx_sk/production/_ext/1360937237/app3.o
 .debug_str     0x0000010b        0x0 build/pic32mx_sk/production/_ext/1360937237/main.o
 .debug_str     0x0000010b       0x40 build/pic32mx_sk/production/_ext/2067596619/osal_freertos.o
 .debug_str     0x0000014b       0x1d build/pic32mx_sk/production/_ext/711155467/sys_int_pic32.o
 .debug_str     0x00000168       0x1d build/pic32mx_sk/production/_ext/427228813/heap_1.o
 .debug_str     0x00000185       0x37 build/pic32mx_sk/production/_ext/789006650/port.o
 .debug_str     0x000001bc        0x0 build/pic32mx_sk/production/_ext/161854096/croutine.o
 .debug_str     0x000001bc       0x2b build/pic32mx_sk/production/_ext/161854096/list.o
 .debug_str     0x000001e7      0x131 build/pic32mx_sk/production/_ext/161854096/queue.o
 .debug_str     0x00000318      0x1b1 build/pic32mx_sk/production/_ext/161854096/tasks.o
 .debug_str     0x000004c9        0x0 build/pic32mx_sk/production/_ext/161854096/timers.o
 .debug_str     0x000004c9       0xe6 build/pic32mx_sk/production/_ext/161854096/event_groups.o
 .debug_str     0x000005af      0x13d build/pic32mx_sk/production/_ext/161854096/stream_buffer.o
 .debug_str     0x000006ec        0x0 build/pic32mx_sk/production/_ext/1360937237/io_setup.o
 .debug_str     0x000006ec        0x0 ..\..\..\..\..\..\..\..\shiro019_accelerometer_spi.X\dist\default\production\shiro019_accelerometer_spi.X.a(accel_define.o)
 .debug_str     0x000006ec        0x0 ..\..\..\..\..\..\..\..\shiro019_accelerometer_spi.X\dist\default\production\shiro019_accelerometer_spi.X.a(accel_read_x.o)
 .debug_str     0x000006ec        0x0 ..\..\..\..\..\..\..\..\shiro019_accelerometer_spi.X\dist\default\production\shiro019_accelerometer_spi.X.a(accel_read_y.o)
 .debug_str     0x000006ec        0x0 ..\..\..\..\..\..\..\..\shiro019_accelerometer_spi.X\dist\default\production\shiro019_accelerometer_spi.X.a(accel_setup.o)
 .debug_str     0x000006ec        0x0 ..\..\..\..\..\..\..\..\shiro019_accelerometer_spi.X\dist\default\production\shiro019_accelerometer_spi.X.a(spi2_read_register.o)
 .debug_str     0x000006ec        0x0 ..\..\..\..\..\..\..\..\shiro019_accelerometer_spi.X\dist\default\production\shiro019_accelerometer_spi.X.a(spi2_setup.o)
 .debug_str     0x000006ec        0x0 ..\..\..\..\..\..\..\..\shiro019_accelerometer_spi.X\dist\default\production\shiro019_accelerometer_spi.X.a(spi2_write_register.o)
 .debug_str     0x000006ec        0x0 c:/program files (x86)/microchip/xc32/v2.30/bin/bin/../../lib/gcc/pic32mx/4.8.3/../../../../pic32mx/lib\libpic32.a(default-bootstrap-exception-handler.o)
 .debug_str     0x000006ec        0x0 c:/program files (x86)/microchip/xc32/v2.30/bin/bin/../../lib/gcc/pic32mx/4.8.3/../../../../pic32mx/lib\libpic32.a(default-on-reset.o)
 .debug_str     0x000006ec        0x0 c:/program files (x86)/microchip/xc32/v2.30/bin/bin/../../lib/gcc/pic32mx/4.8.3/../../../../pic32mx/lib\libpic32.a(default-on-bootstrap.o)
 .debug_str     0x000006ec        0x0 c:/program files (x86)/microchip/xc32/v2.30/bin/bin/../../lib/gcc/pic32mx/4.8.3/../../../../pic32mx/lib\libpic32.a(xc32_uart.o)
 .debug_str     0x000006ec        0x0 c:/program files (x86)/microchip/xc32/v2.30/bin/bin/../../lib/gcc/pic32mx/4.8.3/../../../../pic32mx/lib\libpic32.a(defaultinterrupt.o)
 .debug_str     0x000006ec        0x0 c:/program files (x86)/microchip/xc32/v2.30/bin/bin/../../lib/gcc/pic32mx/4.8.3/../../../../pic32mx/lib\libc.a(putchar.o)
 .debug_str     0x000006ec        0x0 c:/program files (x86)/microchip/xc32/v2.30/bin/bin/../../lib/gcc/pic32mx/4.8.3/../../../../pic32mx/lib\libc.a(printf_fF.eo)
 .debug_str     0x000006ec        0x0 c:/program files (x86)/microchip/xc32/v2.30/bin/bin/../../lib/gcc/pic32mx/4.8.3/../../../../pic32mx/lib\libc.a(printf_s.eo)
 .debug_str     0x000006ec        0x0 c:/program files (x86)/microchip/xc32/v2.30/bin/bin/../../lib/gcc/pic32mx/4.8.3/../../../../pic32mx/lib\libc.a(_iob.o)
 .debug_str     0x000006ec        0x0 c:/program files (x86)/microchip/xc32/v2.30/bin/bin/../../lib/gcc/pic32mx/4.8.3/../../../../pic32mx/lib\libc.a(_fputc_simple.o)
 .debug_str     0x000006ec        0x0 c:/program files (x86)/microchip/xc32/v2.30/bin/bin/../../lib/gcc/pic32mx/4.8.3/../../../../pic32mx/lib\libc.a(_flsbuf_simple.o)
 .debug_str     0x000006ec        0x0 c:/program files (x86)/microchip/xc32/v2.30/bin/bin/../../lib/gcc/pic32mx/4.8.3/../../../../pic32mx/lib\libc.a(ctype.o)
 .debug_str     0x000006ec        0x0 c:/program files (x86)/microchip/xc32/v2.30/bin/bin/../../lib/gcc/pic32mx/4.8.3/../../../../pic32mx/lib\libc.a(ldpowers.o)
 .debug_str     0x000006ec        0x0 c:/program files (x86)/microchip/xc32/v2.30/bin/bin/../../lib/gcc/pic32mx/4.8.3/../../../../pic32mx/lib\libc.a(doprnt_fFs.eo)
 .debug_str     0x000006ec        0x0 c:/program files (x86)/microchip/xc32/v2.30/bin/bin/../../lib/gcc/pic32mx/4.8.3/../../../../pic32mx/lib\libe.a(_fixunsdfdi.o)
 .debug_str     0x000006ec        0x0 c:/program files (x86)/microchip/xc32/v2.30/bin/bin/../../lib/gcc/pic32mx/4.8.3/../../../../pic32mx/lib\libe.a(_orderdf2.o)
 .debug_str     0x000006ec        0x0 c:/program files (x86)/microchip/xc32/v2.30/bin/bin/../../lib/gcc/pic32mx/4.8.3/../../../../pic32mx/lib\libe.a(_fixdfdi.o)
 .debug_str     0x000006ec        0x0 c:/program files (x86)/microchip/xc32/v2.30/bin/bin/../../lib/gcc/pic32mx/4.8.3\libgcc.a(_floatundidf.o)
 .debug_str     0x000006ec        0x0 c:/program files (x86)/microchip/xc32/v2.30/bin/bin/../../lib/gcc/pic32mx/4.8.3\libgcc.a(_udivdi3.o)
 .debug_str     0x000006ec        0x0 c:/program files (x86)/microchip/xc32/v2.30/bin/bin/../../lib/gcc/pic32mx/4.8.3\libgcc.a(_umoddi3.o)
 .debug_str     0x000006ec        0x0 c:/program files (x86)/microchip/xc32/v2.30/bin/bin/../../lib/gcc/pic32mx/4.8.3\libgcc.a(floatunsidf.o)
 .debug_str     0x000006ec        0x0 c:/program files (x86)/microchip/xc32/v2.30/bin/bin/../../lib/gcc/pic32mx/4.8.3/../../../../pic32mx/lib\libpic32.a(write.o)
 .debug_str     0x000006ec        0x0 c:/program files (x86)/microchip/xc32/v2.30/bin/bin/../../lib/gcc/pic32mx/4.8.3/../../../../pic32mx/lib\libpic32.a(_mon_putc.o)

.debug_loc      0x00000000     0x6f03
 *(.debug_loc)
 .debug_loc     0x00000000      0x3bb build/pic32mx_sk/production/_ext/1764187882/bsp.o
 .debug_loc     0x000003bb       0x49 build/pic32mx_sk/production/_ext/1458591747/sys_clk_pic32mx.o
 .debug_loc     0x00000404       0xf0 build/pic32mx_sk/production/_ext/374885412/sys_devcon.o
 .debug_loc     0x000004f4       0xda build/pic32mx_sk/production/_ext/374885412/sys_devcon_pic32mx.o
 .debug_loc     0x000005ce      0x8a5 build/pic32mx_sk/production/_ext/1255054701/sys_ports_static.o
 .debug_loc     0x00000e73       0x21 build/pic32mx_sk/production/_ext/351744058/system_init.o
 .debug_loc     0x00000e94       0x7e build/pic32mx_sk/production/_ext/351744058/rtos_hooks.o
 .debug_loc     0x00000f12       0x1e build/pic32mx_sk/production/_ext/1360937237/app2.o
 .debug_loc     0x00000f30      0x416 build/pic32mx_sk/production/_ext/2067596619/osal_freertos.o
 .debug_loc     0x00001346       0x7c build/pic32mx_sk/production/_ext/711155467/sys_int_pic32.o
 .debug_loc     0x000013c2       0x6a build/pic32mx_sk/production/_ext/427228813/heap_1.o
 .debug_loc     0x0000142c       0xee build/pic32mx_sk/production/_ext/789006650/port.o
 .debug_loc     0x0000151a       0x44 build/pic32mx_sk/production/_ext/161854096/list.o
 .debug_loc     0x0000155e     0x1241 build/pic32mx_sk/production/_ext/161854096/queue.o
 .debug_loc     0x0000279f     0x1673 build/pic32mx_sk/production/_ext/161854096/tasks.o
 .debug_loc     0x00003e12      0x95e build/pic32mx_sk/production/_ext/161854096/event_groups.o
 .debug_loc     0x00004770     0x117b build/pic32mx_sk/production/_ext/161854096/stream_buffer.o
 .debug_loc     0x000058eb       0x2c c:/program files (x86)/microchip/xc32/v2.30/bin/bin/../../lib/gcc/pic32mx/4.8.3/../../../../pic32mx/lib\libpic32.a(default-bootstrap-exception-handler.o)
 .debug_loc     0x00005917       0x2c c:/program files (x86)/microchip/xc32/v2.30/bin/bin/../../lib/gcc/pic32mx/4.8.3/../../../../pic32mx/lib\libe.a(_fixunsdfdi.o)
 .debug_loc     0x00005943       0x41 c:/program files (x86)/microchip/xc32/v2.30/bin/bin/../../lib/gcc/pic32mx/4.8.3\libgcc.a(_floatundidf.o)
 .debug_loc     0x00005984      0xa6a c:/program files (x86)/microchip/xc32/v2.30/bin/bin/../../lib/gcc/pic32mx/4.8.3\libgcc.a(_udivdi3.o)
 .debug_loc     0x000063ee      0xa3d c:/program files (x86)/microchip/xc32/v2.30/bin/bin/../../lib/gcc/pic32mx/4.8.3\libgcc.a(_umoddi3.o)
 .debug_loc     0x00006e2b       0x80 c:/program files (x86)/microchip/xc32/v2.30/bin/bin/../../lib/gcc/pic32mx/4.8.3\libgcc.a(floatunsidf.o)
 .debug_loc     0x00006eab       0x38 c:/program files (x86)/microchip/xc32/v2.30/bin/bin/../../lib/gcc/pic32mx/4.8.3/../../../../pic32mx/lib\libpic32.a(write.o)
 .debug_loc     0x00006ee3       0x20 c:/program files (x86)/microchip/xc32/v2.30/bin/bin/../../lib/gcc/pic32mx/4.8.3/../../../../pic32mx/lib\libpic32.a(_mon_putc.o)

.debug_macinfo
 *(.debug_macinfo)

.debug_weaknames
 *(.debug_weaknames)

.debug_funcnames
 *(.debug_funcnames)

.debug_typenames
 *(.debug_typenames)

.debug_varnames
 *(.debug_varnames)

.debug_pubtypes
 *(.debug_pubtypes)

.debug_ranges   0x00000000      0xc58
 *(.debug_ranges)
 .debug_ranges  0x00000000      0x100 build/pic32mx_sk/production/_ext/1764187882/bsp.o
 .debug_ranges  0x00000100       0x40 build/pic32mx_sk/production/_ext/1458591747/sys_clk_pic32mx.o
 .debug_ranges  0x00000140       0x68 build/pic32mx_sk/production/_ext/374885412/sys_devcon.o
 .debug_ranges  0x000001a8       0x10 build/pic32mx_sk/production/_ext/374885412/sys_devcon_pic32mx.o
 .debug_ranges  0x000001b8      0x160 build/pic32mx_sk/production/_ext/1255054701/sys_ports_static.o
 .debug_ranges  0x00000318       0x10 build/pic32mx_sk/production/_ext/351744058/system_init.o
 .debug_ranges  0x00000328       0x10 build/pic32mx_sk/production/_ext/351744058/system_exceptions.o
 .debug_ranges  0x00000338       0x38 build/pic32mx_sk/production/_ext/351744058/system_tasks.o
 .debug_ranges  0x00000370       0x30 build/pic32mx_sk/production/_ext/351744058/rtos_hooks.o
 .debug_ranges  0x000003a0       0x18 build/pic32mx_sk/production/_ext/1360937237/app.o
 .debug_ranges  0x000003b8       0x18 build/pic32mx_sk/production/_ext/1360937237/app1.o
 .debug_ranges  0x000003d0       0x28 build/pic32mx_sk/production/_ext/1360937237/app2.o
 .debug_ranges  0x000003f8       0x18 build/pic32mx_sk/production/_ext/1360937237/app3.o
 .debug_ranges  0x00000410       0x10 build/pic32mx_sk/production/_ext/1360937237/main.o
 .debug_ranges  0x00000420       0x78 build/pic32mx_sk/production/_ext/2067596619/osal_freertos.o
 .debug_ranges  0x00000498       0x50 build/pic32mx_sk/production/_ext/711155467/sys_int_pic32.o
 .debug_ranges  0x000004e8       0x28 build/pic32mx_sk/production/_ext/427228813/heap_1.o
 .debug_ranges  0x00000510       0x48 build/pic32mx_sk/production/_ext/789006650/port.o
 .debug_ranges  0x00000558       0x30 build/pic32mx_sk/production/_ext/161854096/list.o
 .debug_ranges  0x00000588      0x130 build/pic32mx_sk/production/_ext/161854096/queue.o
 .debug_ranges  0x000006b8      0x1d8 build/pic32mx_sk/production/_ext/161854096/tasks.o
 .debug_ranges  0x00000890       0x98 build/pic32mx_sk/production/_ext/161854096/event_groups.o
 .debug_ranges  0x00000928       0xa8 build/pic32mx_sk/production/_ext/161854096/stream_buffer.o
 .debug_ranges  0x000009d0       0x20 build/pic32mx_sk/production/_ext/1360937237/io_setup.o
 .debug_ranges  0x000009f0       0x10 c:/program files (x86)/microchip/xc32/v2.30/bin/bin/../../lib/gcc/pic32mx/4.8.3/../../../../pic32mx/lib\libpic32.a(default-bootstrap-exception-handler.o)
 .debug_ranges  0x00000a00       0x10 c:/program files (x86)/microchip/xc32/v2.30/bin/bin/../../lib/gcc/pic32mx/4.8.3/../../../../pic32mx/lib\libpic32.a(default-on-reset.o)
 .debug_ranges  0x00000a10       0x10 c:/program files (x86)/microchip/xc32/v2.30/bin/bin/../../lib/gcc/pic32mx/4.8.3/../../../../pic32mx/lib\libpic32.a(default-on-bootstrap.o)
 .debug_ranges  0x00000a20       0x10 c:/program files (x86)/microchip/xc32/v2.30/bin/bin/../../lib/gcc/pic32mx/4.8.3/../../../../pic32mx/lib\libpic32.a(defaultinterrupt.o)
 .debug_ranges  0x00000a30       0x10 c:/program files (x86)/microchip/xc32/v2.30/bin/bin/../../lib/gcc/pic32mx/4.8.3/../../../../pic32mx/lib\libc.a(putchar.o)
 .debug_ranges  0x00000a40       0x10 c:/program files (x86)/microchip/xc32/v2.30/bin/bin/../../lib/gcc/pic32mx/4.8.3/../../../../pic32mx/lib\libc.a(printf_fF.eo)
 .debug_ranges  0x00000a50       0x10 c:/program files (x86)/microchip/xc32/v2.30/bin/bin/../../lib/gcc/pic32mx/4.8.3/../../../../pic32mx/lib\libc.a(printf_s.eo)
 .debug_ranges  0x00000a60       0x10 c:/program files (x86)/microchip/xc32/v2.30/bin/bin/../../lib/gcc/pic32mx/4.8.3/../../../../pic32mx/lib\libc.a(_fputc_simple.o)
 .debug_ranges  0x00000a70       0x10 c:/program files (x86)/microchip/xc32/v2.30/bin/bin/../../lib/gcc/pic32mx/4.8.3/../../../../pic32mx/lib\libc.a(_flsbuf_simple.o)
 .debug_ranges  0x00000a80       0x18 c:/program files (x86)/microchip/xc32/v2.30/bin/bin/../../lib/gcc/pic32mx/4.8.3/../../../../pic32mx/lib\libc.a(doprnt_fFs.eo)
 .debug_ranges  0x00000a98       0x10 c:/program files (x86)/microchip/xc32/v2.30/bin/bin/../../lib/gcc/pic32mx/4.8.3/../../../../pic32mx/lib\libe.a(_fixunsdfdi.o)
 .debug_ranges  0x00000aa8       0x10 c:/program files (x86)/microchip/xc32/v2.30/bin/bin/../../lib/gcc/pic32mx/4.8.3/../../../../pic32mx/lib\libe.a(_orderdf2.o)
 .debug_ranges  0x00000ab8       0x10 c:/program files (x86)/microchip/xc32/v2.30/bin/bin/../../lib/gcc/pic32mx/4.8.3/../../../../pic32mx/lib\libe.a(_fixdfdi.o)
 .debug_ranges  0x00000ac8       0x98 c:/program files (x86)/microchip/xc32/v2.30/bin/bin/../../lib/gcc/pic32mx/4.8.3\libgcc.a(_udivdi3.o)
 .debug_ranges  0x00000b60       0xd8 c:/program files (x86)/microchip/xc32/v2.30/bin/bin/../../lib/gcc/pic32mx/4.8.3\libgcc.a(_umoddi3.o)
 .debug_ranges  0x00000c38       0x10 c:/program files (x86)/microchip/xc32/v2.30/bin/bin/../../lib/gcc/pic32mx/4.8.3/../../../../pic32mx/lib\libpic32.a(write.o)
 .debug_ranges  0x00000c48       0x10 c:/program files (x86)/microchip/xc32/v2.30/bin/bin/../../lib/gcc/pic32mx/4.8.3/../../../../pic32mx/lib\libpic32.a(_mon_putc.o)

.gnu.attributes
                0x00000000       0x10
 *(.gnu.attributes)
 .gnu.attributes
                0x00000000       0x10 build/pic32mx_sk/production/_ext/1764187882/bsp.o
 .gnu.attributes
                0x00000010       0x10 build/pic32mx_sk/production/_ext/1458591747/sys_clk_pic32mx.o
 .gnu.attributes
                0x00000020       0x10 build/pic32mx_sk/production/_ext/374885412/sys_devcon.o
 .gnu.attributes
                0x00000030       0x10 build/pic32mx_sk/production/_ext/374885412/sys_devcon_pic32mx.o
 .gnu.attributes
                0x00000040       0x10 build/pic32mx_sk/production/_ext/1255054701/sys_ports_static.o
 .gnu.attributes
                0x00000050       0x10 build/pic32mx_sk/production/_ext/351744058/system_init.o
 .gnu.attributes
                0x00000060       0x10 build/pic32mx_sk/production/_ext/351744058/system_interrupt.o
 .gnu.attributes
                0x00000070       0x10 build/pic32mx_sk/production/_ext/351744058/system_exceptions.o
 .gnu.attributes
                0x00000080       0x10 build/pic32mx_sk/production/_ext/351744058/system_tasks.o
 .gnu.attributes
                0x00000090       0x10 build/pic32mx_sk/production/_ext/351744058/rtos_hooks.o
 .gnu.attributes
                0x000000a0       0x10 build/pic32mx_sk/production/_ext/1360937237/app.o
 .gnu.attributes
                0x000000b0       0x10 build/pic32mx_sk/production/_ext/1360937237/app1.o
 .gnu.attributes
                0x000000c0       0x10 build/pic32mx_sk/production/_ext/1360937237/app2.o
 .gnu.attributes
                0x000000d0       0x10 build/pic32mx_sk/production/_ext/1360937237/app3.o
 .gnu.attributes
                0x000000e0       0x10 build/pic32mx_sk/production/_ext/1360937237/main.o
 .gnu.attributes
                0x000000f0       0x10 build/pic32mx_sk/production/_ext/2067596619/osal_freertos.o
 .gnu.attributes
                0x00000100       0x10 build/pic32mx_sk/production/_ext/711155467/sys_int_pic32.o
 .gnu.attributes
                0x00000110       0x10 build/pic32mx_sk/production/_ext/427228813/heap_1.o
 .gnu.attributes
                0x00000120       0x10 build/pic32mx_sk/production/_ext/789006650/port.o
 .gnu.attributes
                0x00000130       0x10 build/pic32mx_sk/production/_ext/161854096/croutine.o
 .gnu.attributes
                0x00000140       0x10 build/pic32mx_sk/production/_ext/161854096/list.o
 .gnu.attributes
                0x00000150       0x10 build/pic32mx_sk/production/_ext/161854096/queue.o
 .gnu.attributes
                0x00000160       0x10 build/pic32mx_sk/production/_ext/161854096/tasks.o
 .gnu.attributes
                0x00000170       0x10 build/pic32mx_sk/production/_ext/161854096/timers.o
 .gnu.attributes
                0x00000180       0x10 build/pic32mx_sk/production/_ext/161854096/event_groups.o
 .gnu.attributes
                0x00000190       0x10 build/pic32mx_sk/production/_ext/161854096/stream_buffer.o
 .gnu.attributes
                0x000001a0       0x10 build/pic32mx_sk/production/_ext/1360937237/io_setup.o
 .gnu.attributes
                0x000001b0       0x10 ..\..\..\..\..\..\..\..\shiro019_accelerometer_spi.X\dist\default\production\shiro019_accelerometer_spi.X.a(accel_define.o)
 .gnu.attributes
                0x000001c0       0x10 ..\..\..\..\..\..\..\..\shiro019_accelerometer_spi.X\dist\default\production\shiro019_accelerometer_spi.X.a(accel_read_x.o)
 .gnu.attributes
                0x000001d0       0x10 ..\..\..\..\..\..\..\..\shiro019_accelerometer_spi.X\dist\default\production\shiro019_accelerometer_spi.X.a(accel_read_y.o)
 .gnu.attributes
                0x000001e0       0x10 ..\..\..\..\..\..\..\..\shiro019_accelerometer_spi.X\dist\default\production\shiro019_accelerometer_spi.X.a(accel_setup.o)
 .gnu.attributes
                0x000001f0       0x10 ..\..\..\..\..\..\..\..\shiro019_accelerometer_spi.X\dist\default\production\shiro019_accelerometer_spi.X.a(spi2_read_register.o)
 .gnu.attributes
                0x00000200       0x10 ..\..\..\..\..\..\..\..\shiro019_accelerometer_spi.X\dist\default\production\shiro019_accelerometer_spi.X.a(spi2_setup.o)
 .gnu.attributes
                0x00000210       0x10 ..\..\..\..\..\..\..\..\shiro019_accelerometer_spi.X\dist\default\production\shiro019_accelerometer_spi.X.a(spi2_write_register.o)
 .gnu.attributes
                0x00000220       0x10 c:/program files (x86)/microchip/xc32/v2.30/bin/bin/../../lib/gcc/pic32mx/4.8.3/../../../../pic32mx/lib\libpic32.a(default-bootstrap-exception-handler.o)
 .gnu.attributes
                0x00000230       0x10 c:/program files (x86)/microchip/xc32/v2.30/bin/bin/../../lib/gcc/pic32mx/4.8.3/../../../../pic32mx/lib\libpic32.a(default-on-reset.o)
 .gnu.attributes
                0x00000240       0x10 c:/program files (x86)/microchip/xc32/v2.30/bin/bin/../../lib/gcc/pic32mx/4.8.3/../../../../pic32mx/lib\libpic32.a(default-on-bootstrap.o)
 .gnu.attributes
                0x00000250       0x10 c:/program files (x86)/microchip/xc32/v2.30/bin/bin/../../lib/gcc/pic32mx/4.8.3/../../../../pic32mx/lib\libpic32.a(xc32_uart.o)
 .gnu.attributes
                0x00000260       0x10 c:/program files (x86)/microchip/xc32/v2.30/bin/bin/../../lib/gcc/pic32mx/4.8.3/../../../../pic32mx/lib\libpic32.a(defaultinterrupt.o)
 .gnu.attributes
                0x00000270       0x10 c:/program files (x86)/microchip/xc32/v2.30/bin/bin/../../lib/gcc/pic32mx/4.8.3/../../../../pic32mx/lib\libc.a(putchar.o)
 .gnu.attributes
                0x00000280       0x10 c:/program files (x86)/microchip/xc32/v2.30/bin/bin/../../lib/gcc/pic32mx/4.8.3/../../../../pic32mx/lib\libc.a(printf_fF.eo)
 .gnu.attributes
                0x00000290       0x10 c:/program files (x86)/microchip/xc32/v2.30/bin/bin/../../lib/gcc/pic32mx/4.8.3/../../../../pic32mx/lib\libc.a(printf_s.eo)
 .gnu.attributes
                0x000002a0       0x10 c:/program files (x86)/microchip/xc32/v2.30/bin/bin/../../lib/gcc/pic32mx/4.8.3/../../../../pic32mx/lib\libc.a(_iob.o)
 .gnu.attributes
                0x000002b0       0x10 c:/program files (x86)/microchip/xc32/v2.30/bin/bin/../../lib/gcc/pic32mx/4.8.3/../../../../pic32mx/lib\libc.a(_fputc_simple.o)
 .gnu.attributes
                0x000002c0       0x10 c:/program files (x86)/microchip/xc32/v2.30/bin/bin/../../lib/gcc/pic32mx/4.8.3/../../../../pic32mx/lib\libc.a(_flsbuf_simple.o)
 .gnu.attributes
                0x000002d0       0x10 c:/program files (x86)/microchip/xc32/v2.30/bin/bin/../../lib/gcc/pic32mx/4.8.3/../../../../pic32mx/lib\libc.a(ctype.o)
 .gnu.attributes
                0x000002e0       0x10 c:/program files (x86)/microchip/xc32/v2.30/bin/bin/../../lib/gcc/pic32mx/4.8.3/../../../../pic32mx/lib\libc.a(ldpowers.o)
 .gnu.attributes
                0x000002f0       0x10 c:/program files (x86)/microchip/xc32/v2.30/bin/bin/../../lib/gcc/pic32mx/4.8.3/../../../../pic32mx/lib\libc.a(doprnt_fFs.eo)
 .gnu.attributes
                0x00000300       0x10 c:/program files (x86)/microchip/xc32/v2.30/bin/bin/../../lib/gcc/pic32mx/4.8.3/../../../../pic32mx/lib\libe.a(_fixunsdfdi.o)
 .gnu.attributes
                0x00000310       0x10 c:/program files (x86)/microchip/xc32/v2.30/bin/bin/../../lib/gcc/pic32mx/4.8.3/../../../../pic32mx/lib\libe.a(_orderdf2.o)
 .gnu.attributes
                0x00000320       0x10 c:/program files (x86)/microchip/xc32/v2.30/bin/bin/../../lib/gcc/pic32mx/4.8.3/../../../../pic32mx/lib\libe.a(_fixdfdi.o)
 .gnu.attributes
                0x00000330       0x10 c:/program files (x86)/microchip/xc32/v2.30/bin/bin/../../lib/gcc/pic32mx/4.8.3\libgcc.a(_floatundidf.o)
 .gnu.attributes
                0x00000340       0x10 c:/program files (x86)/microchip/xc32/v2.30/bin/bin/../../lib/gcc/pic32mx/4.8.3\libgcc.a(_udivdi3.o)
 .gnu.attributes
                0x00000350       0x10 c:/program files (x86)/microchip/xc32/v2.30/bin/bin/../../lib/gcc/pic32mx/4.8.3\libgcc.a(_umoddi3.o)
 .gnu.attributes
                0x00000360       0x10 c:/program files (x86)/microchip/xc32/v2.30/bin/bin/../../lib/gcc/pic32mx/4.8.3\libgcc.a(floatunsidf.o)
 .gnu.attributes
                0x00000370       0x10 c:/program files (x86)/microchip/xc32/v2.30/bin/bin/../../lib/gcc/pic32mx/4.8.3/../../../../pic32mx/lib\libpic32.a(write.o)
 .gnu.attributes
                0x00000380       0x10 c:/program files (x86)/microchip/xc32/v2.30/bin/bin/../../lib/gcc/pic32mx/4.8.3/../../../../pic32mx/lib\libpic32.a(_mon_putc.o)
LOAD c:/program files (x86)/microchip/xc32/v2.30/bin/bin/../../lib/gcc/pic32mx/4.8.3\libgcc.a
START GROUP
LOAD c:/program files (x86)/microchip/xc32/v2.30/bin/bin/../../lib/gcc/pic32mx/4.8.3/../../../../pic32mx/lib\libpic32.a
LOAD c:/program files (x86)/microchip/xc32/v2.30/bin/bin/../../lib/gcc/pic32mx/4.8.3/../../../../pic32mx/lib\libdebug.a
LOAD c:/program files (x86)/microchip/xc32/v2.30/bin/bin/../../lib/gcc/pic32mx/4.8.3/../../../../pic32mx/lib\libpic32.a
LOAD c:/program files (x86)/microchip/xc32/v2.30/bin/bin/../../lib/gcc/pic32mx/4.8.3/../../../../pic32mx/lib\libc.a
LOAD c:/program files (x86)/microchip/xc32/v2.30/bin/bin/../../lib/gcc/pic32mx/4.8.3/../../../../pic32mx/lib\libc.a
LOAD c:/program files (x86)/microchip/xc32/v2.30/bin/bin/../../lib/gcc/pic32mx/4.8.3/../../../../pic32mx/lib\libm.a
LOAD c:/program files (x86)/microchip/xc32/v2.30/bin/bin/../../lib/gcc/pic32mx/4.8.3/../../../../pic32mx/lib\libe.a
LOAD c:/program files (x86)/microchip/xc32/v2.30/bin/bin/../../lib/gcc/pic32mx/4.8.3/../../../../pic32mx/lib\libdsp.a
LOAD c:/program files (x86)/microchip/xc32/v2.30/bin/bin/../../lib/gcc/pic32mx/4.8.3\libgcc.a
LOAD c:/program files (x86)/microchip/xc32/v2.30/bin/bin/../../lib/gcc/pic32mx/4.8.3/../../../../pic32mx/lib\libpic32.a
END GROUP
LOAD c:/program files (x86)/microchip/xc32/v2.30/bin/bin/../../lib/gcc/pic32mx/4.8.3\libgcc.a
OUTPUT(dist/pic32mx_sk/production/basic_freertos.X.production.elf elf32-tradlittlemips)
LOAD stack
LOAD data_init

.reginfo        0x00000000       0x18
 .reginfo       0x00000000       0x18 c:/program files (x86)/microchip/xc32/v2.30/bin/bin/../../lib/gcc/pic32mx/4.8.3/../../../../pic32mx/lib\debug-exception-return.o

.stack          0xa00077c0      0x400
 .stack         0xa00077c0      0x400 stack

.bss            0xa0000080     0x7560
 .bss           0xa0000080     0x6d60 build/pic32mx_sk/production/_ext/427228813/heap_1.o
 .bss           0xa0006de0      0x800 build/pic32mx_sk/production/_ext/789006650/port.o
                0xa0006de0                xISRStack

.bss            0xa00075e0       0xdc
 .bss           0xa00075e0       0xdc build/pic32mx_sk/production/_ext/161854096/tasks.o

.data           0xa00076bc       0xa4
 .data          0xa00076bc       0xa4 c:/program files (x86)/microchip/xc32/v2.30/bin/bin/../../lib/gcc/pic32mx/4.8.3/../../../../pic32mx/lib\libc.a(_iob.o)
                0xa00076bc                _Files
                0xa00076c0                _iob

.bss            0xa0007760       0x44
 .bss           0xa0007760       0x44 c:/program files (x86)/microchip/xc32/v2.30/bin/bin/../../lib/gcc/pic32mx/4.8.3/../../../../pic32mx/lib\libc.a(_iob.o)
                0xa0007760                _sobuf
                0xa0007780                _sibuf
                0xa00077a0                _outdone

._debug_exception
                0xbfc00480       0x2c
 ._debug_exception
                0xbfc00480       0x2c c:/program files (x86)/microchip/xc32/v2.30/bin/bin/../../lib/gcc/pic32mx/4.8.3/../../../../pic32mx/lib\debug-exception-return.o
                0xbfc00480                __DbgExecReturn

.text._vfprintf_fFs
                0x9d000000     0x11b8
 .text._vfprintf_fFs
                0x9d000000     0x11b8 c:/program files (x86)/microchip/xc32/v2.30/bin/bin/../../lib/gcc/pic32mx/4.8.3/../../../../pic32mx/lib\libc.a(doprnt_fFs.eo)
                0x9d000000                _vfprintf_s
                0x9d000000                _vfprintf_0
                0x9d000000                _vfprintf_fF
                0x9d000000                _vfprintf_fFs

.text.dp32mul   0x9d0011b8      0x4b8
 .text.dp32mul  0x9d0011b8      0x4b8 c:/program files (x86)/microchip/xc32/v2.30/bin/bin/../../lib/gcc/pic32mx/4.8.3/../../../../pic32mx/lib\libm.a(dp32div.o)
                0x9d0011b8                __divdf3
                0x9d0011b8                dpdiv

.text           0x9d001670      0x8bc
 .text          0x9d001670      0x464 c:/program files (x86)/microchip/xc32/v2.30/bin/bin/../../lib/gcc/pic32mx/4.8.3\libgcc.a(_umoddi3.o)
                0x9d001670                __umoddi3
 .text          0x9d001ad4      0x458 c:/program files (x86)/microchip/xc32/v2.30/bin/bin/../../lib/gcc/pic32mx/4.8.3\libgcc.a(_udivdi3.o)
                0x9d001ad4                __udivdi3

.text           0x9d001f2c      0x454
 .text          0x9d001f2c      0x454 build/pic32mx_sk/production/_ext/789006650/port_asm.o
                0x9d001f2c                vPortTickInterruptHandler
                0x9d0020d8                vPortStartFirstTask
                0x9d0021a0                vPortYieldISR

.text.dp32subadd
                0x9d002380      0x430
 .text.dp32subadd
                0x9d002380      0x430 c:/program files (x86)/microchip/xc32/v2.30/bin/bin/../../lib/gcc/pic32mx/4.8.3/../../../../pic32mx/lib\libm.a(dp32subadd.o)
                0x9d002380                __subdf3
                0x9d002380                dpsub
                0x9d002388                dpadd
                0x9d002388                __adddf3

.text.dp32mul   0x9d0027b0      0x32c
 .text.dp32mul  0x9d0027b0      0x32c c:/program files (x86)/microchip/xc32/v2.30/bin/bin/../../lib/gcc/pic32mx/4.8.3/../../../../pic32mx/lib\libm.a(dp32mul.o)
                0x9d0027b0                __muldf3
                0x9d0027b0                dpmul

.text.xTaskCreate
                0x9d002adc      0x2c8
 .text.xTaskCreate
                0x9d002adc      0x2c8 build/pic32mx_sk/production/_ext/161854096/tasks.o
                0x9d002adc                xTaskCreate

.text.xQueueGenericSend
                0x9d002da4      0x268
 .text.xQueueGenericSend
                0x9d002da4      0x268 build/pic32mx_sk/production/_ext/161854096/queue.o
                0x9d002da4                xQueueGenericSend

.text.scale     0x9d00300c      0x23c
 .text.scale    0x9d00300c      0x23c c:/program files (x86)/microchip/xc32/v2.30/bin/bin/../../lib/gcc/pic32mx/4.8.3/../../../../pic32mx/lib\libc.a(doprnt_fFs.eo)

.text.xQueueReceive
                0x9d003248      0x1f4
 .text.xQueueReceive
                0x9d003248      0x1f4 build/pic32mx_sk/production/_ext/161854096/queue.o
                0x9d003248                xQueueReceive

.text.io_setup  0x9d00343c      0x1f0
 .text.io_setup
                0x9d00343c      0x1f0 build/pic32mx_sk/production/_ext/1360937237/io_setup.o
                0x9d00343c                io_setup

.text.fp32mul   0x9d00362c      0x1bc
 .text.fp32mul  0x9d00362c      0x1bc c:/program files (x86)/microchip/xc32/v2.30/bin/bin/../../lib/gcc/pic32mx/4.8.3/../../../../pic32mx/lib\libm.a(fp32mul.o)
                0x9d00362c                fpmul
                0x9d00362c                __mulsf3

.text.xTaskIncrementTick
                0x9d0037e8      0x1a0
 .text.xTaskIncrementTick
                0x9d0037e8      0x1a0 build/pic32mx_sk/production/_ext/161854096/tasks.o
                0x9d0037e8                xTaskIncrementTick

.text           0x9d003988      0x168
 .text          0x9d003988      0x168 c:/program files (x86)/microchip/xc32/v2.30/bin/bin/../../lib/gcc/pic32mx/4.8.3/../../../../pic32mx/lib\libpic32.a(memcpy.o)
                0x9d003988                memcpy

.text.xTaskResumeAll
                0x9d003af0      0x164
 .text.xTaskResumeAll
                0x9d003af0      0x164 build/pic32mx_sk/production/_ext/161854096/tasks.o
                0x9d003af0                xTaskResumeAll

.rodata         0x9d003c58      0x160
 .rodata        0x9d003c58      0x160 c:/program files (x86)/microchip/xc32/v2.30/bin/bin/../../lib/gcc/pic32mx/4.8.3/../../../../pic32mx/lib\libc.a(ldpowers.o)
                0x9d003c58                _npowers_
                0x9d003d08                _powers_

.dinit          0x9d003db8      0x150
 .dinit         0x9d003db8      0x150 data_init

.text.fputc     0x9d003f08      0x144
 .text.fputc    0x9d003f08      0x144 c:/program files (x86)/microchip/xc32/v2.30/bin/bin/../../lib/gcc/pic32mx/4.8.3/../../../../pic32mx/lib\libc.a(_fputc_simple.o)
                0x9d003f08                fputc

.text.xTaskPriorityDisinherit
                0x9d00404c      0x12c
 .text.xTaskPriorityDisinherit
                0x9d00404c      0x12c build/pic32mx_sk/production/_ext/161854096/tasks.o
                0x9d00404c                xTaskPriorityDisinherit

.text._flsbuf   0x9d004178      0x12c
 .text._flsbuf  0x9d004178      0x12c c:/program files (x86)/microchip/xc32/v2.30/bin/bin/../../lib/gcc/pic32mx/4.8.3/../../../../pic32mx/lib\libc.a(_flsbuf_simple.o)
                0x9d004178                _flsbuf

.text.dpcmp     0x9d0042a4      0x12c
 .text.dpcmp    0x9d0042a4      0x12c c:/program files (x86)/microchip/xc32/v2.30/bin/bin/../../lib/gcc/pic32mx/4.8.3/../../../../pic32mx/lib\libm.a(dpcmp.o)
                0x9d0042a4                __gtdf2
                0x9d0042a4                __ltdf2
                0x9d0042a4                dpcmp
                0x9d0042a4                __ledf2
                0x9d0042a4                __nedf2
                0x9d0042a4                __gedf2
                0x9d0042a4                __eqdf2

.rodata         0x9d0043d0      0x128
 .rodata        0x9d0043d0      0x128 build/pic32mx_sk/production/_ext/351744058/system_exceptions.o

.text.vTaskSwitchContext
                0x9d0044f8      0x11c
 .text.vTaskSwitchContext
                0x9d0044f8      0x11c build/pic32mx_sk/production/_ext/161854096/tasks.o
                0x9d0044f8                vTaskSwitchContext

.text           0x9d004614      0x104
 .text          0x9d004614      0x104 ..\..\..\..\..\..\..\..\shiro019_accelerometer_spi.X\dist\default\production\shiro019_accelerometer_spi.X.a(spi2_setup.o)
                0x9d004614                spi2_setup

.rodata         0x9d004718      0x104
 .rodata        0x9d004718      0x104 c:/program files (x86)/microchip/xc32/v2.30/bin/bin/../../lib/gcc/pic32mx/4.8.3/../../../../pic32mx/lib\libc.a(ctype.o)
                0x9d004718                _ctype

.text.prvUnlockQueue
                0x9d00481c      0x100
 .text.prvUnlockQueue
                0x9d00481c      0x100 build/pic32mx_sk/production/_ext/161854096/queue.o

.text.prvCopyDataToQueue
                0x9d00491c       0xf4
 .text.prvCopyDataToQueue
                0x9d00491c       0xf4 build/pic32mx_sk/production/_ext/161854096/queue.o

.text.__fixdfdi
                0x9d004a10       0xe8
 .text.__fixdfdi
                0x9d004a10       0xe8 c:/program files (x86)/microchip/xc32/v2.30/bin/bin/../../lib/gcc/pic32mx/4.8.3/../../../../pic32mx/lib\libe.a(_fixdfdi.o)
                0x9d004a10                __fixdfdi

.text.SYS_Tasks
                0x9d004af8       0xe4
 .text.SYS_Tasks
                0x9d004af8       0xe4 build/pic32mx_sk/production/_ext/351744058/system_tasks.o
                0x9d004af8                SYS_Tasks

.text.prvAddCurrentTaskToDelayedList
                0x9d004bdc       0xe4
 .text.prvAddCurrentTaskToDelayedList
                0x9d004bdc       0xe4 build/pic32mx_sk/production/_ext/161854096/tasks.o

.rodata         0x9d004cc0       0xe0
 .rodata        0x9d004cc0       0xe0 c:/program files (x86)/microchip/xc32/v2.30/bin/bin/../../lib/gcc/pic32mx/4.8.3/../../../../pic32mx/lib\libc.a(doprnt_fFs.eo)

.text.general_exception
                0x9d004da0       0xdc
 .text.general_exception
                0x9d004da0       0xdc c:/program files (x86)/microchip/xc32/v2.30/bin/bin/../../lib/gcc/pic32mx/4.8.3/../../../../pic32mx/lib\libpic32.a(general-exception.o)
                0x9d004da0                _general_exception_context

.text.xQueueGenericReset
                0x9d004e7c       0xd8
 .text.xQueueGenericReset
                0x9d004e7c       0xd8 build/pic32mx_sk/production/_ext/161854096/queue.o
                0x9d004e7c                xQueueGenericReset

.text           0x9d004f54       0xd8
 .text          0x9d004f54       0xd8 ..\..\..\..\..\..\..\..\shiro019_accelerometer_spi.X\dist\default\production\shiro019_accelerometer_spi.X.a(accel_setup.o)
                0x9d004f54                accel_setup

.text.xTaskRemoveFromEventList
                0x9d00502c       0xd4
 .text.xTaskRemoveFromEventList
                0x9d00502c       0xd4 build/pic32mx_sk/production/_ext/161854096/tasks.o
                0x9d00502c                xTaskRemoveFromEventList

.text._mon_putc
                0x9d005100       0xd4
 .text._mon_putc
                0x9d005100       0xd4 c:/program files (x86)/microchip/xc32/v2.30/bin/bin/../../lib/gcc/pic32mx/4.8.3/../../../../pic32mx/lib\libpic32.a(_mon_putc.o)
                0x9d005100                _mon_putc

.text.xTaskCheckForTimeOut
                0x9d0051d4       0xd0
 .text.xTaskCheckForTimeOut
                0x9d0051d4       0xd0 build/pic32mx_sk/production/_ext/161854096/tasks.o
                0x9d0051d4                xTaskCheckForTimeOut

.text.BSP_LEDOff
                0x9d0052a4       0xc0
 .text.BSP_LEDOff
                0x9d0052a4       0xc0 build/pic32mx_sk/production/_ext/1764187882/bsp.o
                0x9d0052a4                BSP_LEDOff

.text           0x9d005364       0xb8
 .text          0x9d005364       0xb8 ..\..\..\..\..\..\..\..\shiro019_accelerometer_spi.X\dist\default\production\shiro019_accelerometer_spi.X.a(spi2_write_register.o)
                0x9d005364                spi2_write_register

.text.pvPortMalloc
                0x9d00541c       0xb0
 .text.pvPortMalloc
                0x9d00541c       0xb0 build/pic32mx_sk/production/_ext/427228813/heap_1.o
                0x9d00541c                pvPortMalloc

.text           0x9d0054cc      0x160
 .text          0x9d0054cc       0xb0 ..\..\..\..\..\..\..\..\shiro019_accelerometer_spi.X\dist\default\production\shiro019_accelerometer_spi.X.a(accel_read_x.o)
                0x9d0054cc                accel_read_x
 .text          0x9d00557c       0xb0 ..\..\..\..\..\..\..\..\shiro019_accelerometer_spi.X\dist\default\production\shiro019_accelerometer_spi.X.a(accel_read_y.o)
                0x9d00557c                accel_read_y

.text           0x9d00562c       0xac
 .text          0x9d00562c       0xac ..\..\..\..\..\..\..\..\shiro019_accelerometer_spi.X\dist\default\production\shiro019_accelerometer_spi.X.a(spi2_read_register.o)
                0x9d00562c                spi2_read_register

.text.fptodp    0x9d0056d8       0xac
 .text.fptodp   0x9d0056d8       0xac c:/program files (x86)/microchip/xc32/v2.30/bin/bin/../../lib/gcc/pic32mx/4.8.3/../../../../pic32mx/lib\libm.a(fptodp.o)
                0x9d0056d8                fptodp
                0x9d0056d8                __extendsfdf2

.text.xQueueGenericCreate
                0x9d005784       0xa8
 .text.xQueueGenericCreate
                0x9d005784       0xa8 build/pic32mx_sk/production/_ext/161854096/queue.o
                0x9d005784                xQueueGenericCreate

.text.vTaskStartScheduler
                0x9d00582c       0xa8
 .text.vTaskStartScheduler
                0x9d00582c       0xa8 build/pic32mx_sk/production/_ext/161854096/tasks.o
                0x9d00582c                vTaskStartScheduler

.text.prvIdleTask
                0x9d0058d4       0xa8
 .text.prvIdleTask
                0x9d0058d4       0xa8 build/pic32mx_sk/production/_ext/161854096/tasks.o

.text           0x9d00597c       0xa8
 .text          0x9d00597c       0xa8 c:/program files (x86)/microchip/xc32/v2.30/bin/bin/../../lib/gcc/pic32mx/4.8.3/../../../../pic32mx/lib\libpic32.a(memset.o)
                0x9d00597c                memset

.text.libm      0x9d005a24       0xa8
 .text.libm     0x9d005a24       0xa8 c:/program files (x86)/microchip/xc32/v2.30/bin/bin/../../lib/gcc/pic32mx/4.8.3/../../../../pic32mx/lib\libm.a(dpfrexp.o)
                0x9d005a24                dpfrexp
                0x9d005a24                frexp
                0x9d005a24                frexpl

.text.fpcmp     0x9d005acc       0x9c
 .text.fpcmp    0x9d005acc       0x9c c:/program files (x86)/microchip/xc32/v2.30/bin/bin/../../lib/gcc/pic32mx/4.8.3/../../../../pic32mx/lib\libm.a(fpcmp.o)
                0x9d005acc                __nesf2
                0x9d005acc                __gtsf2
                0x9d005acc                __eqsf2
                0x9d005acc                __ltsf2
                0x9d005acc                fpcmp
                0x9d005acc                __gesf2
                0x9d005acc                __lesf2

.text.write     0x9d005b68       0x9c
 .text.write    0x9d005b68       0x9c c:/program files (x86)/microchip/xc32/v2.30/bin/bin/../../lib/gcc/pic32mx/4.8.3/../../../../pic32mx/lib\libpic32.a(write.o)
                0x9d005b68                write

.text.__orderdf2
                0x9d005c04       0x8c
 .text.__orderdf2
                0x9d005c04       0x8c c:/program files (x86)/microchip/xc32/v2.30/bin/bin/../../lib/gcc/pic32mx/4.8.3/../../../../pic32mx/lib\libe.a(_orderdf2.o)
                0x9d005c04                __orderdf2

.text.APP1_Tasks
                0x9d005c90       0x88
 .text.APP1_Tasks
                0x9d005c90       0x88 build/pic32mx_sk/production/_ext/1360937237/app1.o
                0x9d005c90                APP1_Tasks

.text.APP2_Tasks
                0x9d005d18       0x88
 .text.APP2_Tasks
                0x9d005d18       0x88 build/pic32mx_sk/production/_ext/1360937237/app2.o
                0x9d005d18                APP2_Tasks

.text           0x9d005da0       0x84
 .text          0x9d005da0       0x84 c:/program files (x86)/microchip/xc32/v2.30/bin/bin/../../lib/gcc/pic32mx/4.8.3/../../../../pic32mx/lib\libpic32.a(pic32_data_init.o)
                0x9d005da0                __pic32_data_init

.text.__fixunsdfdi
                0x9d005e24       0x80
 .text.__fixunsdfdi
                0x9d005e24       0x80 c:/program files (x86)/microchip/xc32/v2.30/bin/bin/../../lib/gcc/pic32mx/4.8.3/../../../../pic32mx/lib\libe.a(_fixunsdfdi.o)
                0x9d005e24                __fixunsdfdi

.text.vTaskEnterCritical
                0x9d005ea4       0x7c
 .text.vTaskEnterCritical
                0x9d005ea4       0x7c build/pic32mx_sk/production/_ext/161854096/tasks.o
                0x9d005ea4                vTaskEnterCritical

.text.litodp    0x9d005f20       0x78
 .text.litodp   0x9d005f20       0x78 c:/program files (x86)/microchip/xc32/v2.30/bin/bin/../../lib/gcc/pic32mx/4.8.3/../../../../pic32mx/lib\libm.a(litodp.o)
                0x9d005f20                litodp
                0x9d005f20                __floatsidf

.text.vTaskDelay
                0x9d005f98       0x70
 .text.vTaskDelay
                0x9d005f98       0x70 build/pic32mx_sk/production/_ext/161854096/tasks.o
                0x9d005f98                vTaskDelay

.text.vApplicationSetupTickTimerInterrupt
                0x9d006008       0x6c
 .text.vApplicationSetupTickTimerInterrupt
                0x9d006008       0x6c build/pic32mx_sk/production/_ext/789006650/port.o
                0x9d006008                vApplicationSetupTickTimerInterrupt

.text           0x9d006074       0x64
 .text          0x9d006074       0x64 c:/program files (x86)/microchip/xc32/v2.30/bin/bin/../../lib/gcc/pic32mx/4.8.3\libgcc.a(_floatundidf.o)
                0x9d006074                __floatundidf

.text.SYS_Initialize
                0x9d0060d8       0x60
 .text.SYS_Initialize
                0x9d0060d8       0x60 build/pic32mx_sk/production/_ext/351744058/system_init.o
                0x9d0060d8                SYS_Initialize

.text.vListInsert
                0x9d006138       0x60
 .text.vListInsert
                0x9d006138       0x60 build/pic32mx_sk/production/_ext/161854096/list.o
                0x9d006138                vListInsert

.text.vTaskExitCritical
                0x9d006198       0x60
 .text.vTaskExitCritical
                0x9d006198       0x60 build/pic32mx_sk/production/_ext/161854096/tasks.o
                0x9d006198                vTaskExitCritical

.text           0x9d0061f8       0x60
 .text          0x9d0061f8       0x60 ..\..\..\..\..\..\..\..\shiro019_accelerometer_spi.X\dist\default\production\shiro019_accelerometer_spi.X.a(accel_define.o)
                0x9d0061f8                delay

.text.sitofp    0x9d006258       0x60
 .text.sitofp   0x9d006258       0x60 c:/program files (x86)/microchip/xc32/v2.30/bin/bin/../../lib/gcc/pic32mx/4.8.3/../../../../pic32mx/lib\libm.a(sitofp.o)
                0x9d006258                __floatsisf
                0x9d006258                litofp
                0x9d006258                sitofp

.text.uart1_setup
                0x9d0062b8       0x5c
 .text.uart1_setup
                0x9d0062b8       0x5c build/pic32mx_sk/production/_ext/1360937237/app2.o
                0x9d0062b8                uart1_setup

.text.xPortStartScheduler
                0x9d006314       0x5c
 .text.xPortStartScheduler
                0x9d006314       0x5c build/pic32mx_sk/production/_ext/789006650/port.o
                0x9d006314                xPortStartScheduler

.text.vTaskPlaceOnEventList
                0x9d006370       0x5c
 .text.vTaskPlaceOnEventList
                0x9d006370       0x5c build/pic32mx_sk/production/_ext/161854096/tasks.o
                0x9d006370                vTaskPlaceOnEventList

.text.APP_Tasks
                0x9d0063cc       0x58
 .text.APP_Tasks
                0x9d0063cc       0x58 build/pic32mx_sk/production/_ext/1360937237/app.o
                0x9d0063cc                APP_Tasks

.rodata         0x9d006424       0x58
 .rodata        0x9d006424       0x58 build/pic32mx_sk/production/_ext/789006650/port.o
                0x9d006478                xISRStackTop

.text.prvTaskExitError
                0x9d00647c       0x58
 .text.prvTaskExitError
                0x9d00647c       0x58 build/pic32mx_sk/production/_ext/789006650/port.o

.text.BSP_LEDToggle
                0x9d0064d4       0x54
 .text.BSP_LEDToggle
                0x9d0064d4       0x54 build/pic32mx_sk/production/_ext/1764187882/bsp.o
                0x9d0064d4                BSP_LEDToggle

.text.APP3_Tasks
                0x9d006528       0x54
 .text.APP3_Tasks
                0x9d006528       0x54 build/pic32mx_sk/production/_ext/1360937237/app3.o
                0x9d006528                APP3_Tasks

.text.pxPortInitialiseStack
                0x9d00657c       0x54
 .text.pxPortInitialiseStack
                0x9d00657c       0x54 build/pic32mx_sk/production/_ext/789006650/port.o
                0x9d00657c                pxPortInitialiseStack

.text.vPortIncrementTick
                0x9d0065d0       0x54
 .text.vPortIncrementTick
                0x9d0065d0       0x54 build/pic32mx_sk/production/_ext/789006650/port.o
                0x9d0065d0                vPortIncrementTick

.text.main_entry
                0x9d006624       0x54
 .text.main_entry
                0x9d006624       0x54 C:\Users\shiro019\AppData\Local\Temp\ccoS15Bg.o
                0x9d006658                __crt0_exit

.rodata         0x9d006678       0x50
 .rodata        0x9d006678       0x50 build/pic32mx_sk/production/_ext/427228813/heap_1.o

.text.prvCopyDataFromQueue
                0x9d0066c8       0x50
 .text.prvCopyDataFromQueue
                0x9d0066c8       0x50 build/pic32mx_sk/production/_ext/161854096/queue.o

.text.uxListRemove
                0x9d006718       0x4c
 .text.uxListRemove
                0x9d006718       0x4c build/pic32mx_sk/production/_ext/161854096/list.o
                0x9d006718                uxListRemove

.text._bootstrap_exception_handler
                0x9d006764       0x48
 .text._bootstrap_exception_handler
                0x9d006764       0x48 c:/program files (x86)/microchip/xc32/v2.30/bin/bin/../../lib/gcc/pic32mx/4.8.3/../../../../pic32mx/lib\libpic32.a(default-bootstrap-exception-handler.o)
                0x9d006764                _bootstrap_exception_handler

.vector_default
                0x9d0067ac       0x48
 .vector_default
                0x9d0067ac       0x48 c:/program files (x86)/microchip/xc32/v2.30/bin/bin/../../lib/gcc/pic32mx/4.8.3/../../../../pic32mx/lib\libpic32.a(defaultinterrupt.o)
                0x9d0067ac                _DefaultInterrupt

.rodata         0x9d0067f4       0x44
 .rodata        0x9d0067f4       0x44 build/pic32mx_sk/production/_ext/161854096/tasks.o

.text           0x9d006838       0x88
 .text          0x9d006838       0x44 c:/program files (x86)/microchip/xc32/v2.30/bin/bin/../../lib/gcc/pic32mx/4.8.3/../../../../pic32mx/lib\pic32_software_reset.o
                0x9d006838                __pic32_software_reset
 .text          0x9d00687c       0x44 c:/program files (x86)/microchip/xc32/v2.30/bin/bin/../../lib/gcc/pic32mx/4.8.3\libgcc.a(floatunsidf.o)
                0x9d00687c                __floatunsidf

.text._general_exception_handler
                0x9d0068c0       0x40
 .text._general_exception_handler
                0x9d0068c0       0x40 build/pic32mx_sk/production/_ext/351744058/system_exceptions.o
                0x9d0068c0                _general_exception_handler

.text.vApplicationStackOverflowHook
                0x9d006900       0x40
 .text.vApplicationStackOverflowHook
                0x9d006900       0x40 build/pic32mx_sk/production/_ext/351744058/rtos_hooks.o
                0x9d006900                vApplicationStackOverflowHook

.text.vApplicationMallocFailedHook
                0x9d006940       0x40
 .text.vApplicationMallocFailedHook
                0x9d006940       0x40 build/pic32mx_sk/production/_ext/351744058/rtos_hooks.o
                0x9d006940                vApplicationMallocFailedHook

.text.vAssertCalled
                0x9d006980       0x40
 .text.vAssertCalled
                0x9d006980       0x40 build/pic32mx_sk/production/_ext/351744058/rtos_hooks.o
                0x9d006980                vAssertCalled

.text._printf_fF
                0x9d0069c0       0x40
 .text._printf_fF
                0x9d0069c0       0x40 c:/program files (x86)/microchip/xc32/v2.30/bin/bin/../../lib/gcc/pic32mx/4.8.3/../../../../pic32mx/lib\libc.a(printf_fF.eo)
                0x9d0069c0                _printf_fF

.text._printf_s
                0x9d006a00       0x40
 .text._printf_s
                0x9d006a00       0x40 c:/program files (x86)/microchip/xc32/v2.30/bin/bin/../../lib/gcc/pic32mx/4.8.3/../../../../pic32mx/lib\libc.a(printf_s.eo)
                0x9d006a00                _printf_0
                0x9d006a00                _printf_s

.rodata         0x9d006a40       0x78
 .rodata        0x9d006a40       0x3c build/pic32mx_sk/production/_ext/1764187882/bsp.o
 .rodata        0x9d006a7c       0x3c build/pic32mx_sk/production/_ext/351744058/system_tasks.o

.text.uxPortSetInterruptMaskFromISR
                0x9d006ab8       0x3c
 .text.uxPortSetInterruptMaskFromISR
                0x9d006ab8       0x3c build/pic32mx_sk/production/_ext/789006650/port.o
                0x9d006ab8                uxPortSetInterruptMaskFromISR

.rodata         0x9d006af4       0x3c
 .rodata        0x9d006af4       0x3c build/pic32mx_sk/production/_ext/161854096/queue.o

.text.BSP_Initialize
                0x9d006b30       0x38
 .text.BSP_Initialize
                0x9d006b30       0x38 build/pic32mx_sk/production/_ext/1764187882/bsp.o
                0x9d006b30                BSP_Initialize

.text.APP_Initialize
                0x9d006b68       0x38
 .text.APP_Initialize
                0x9d006b68       0x38 build/pic32mx_sk/production/_ext/1360937237/app.o
                0x9d006b68                APP_Initialize

.text.prvResetNextTaskUnblockTime
                0x9d006ba0       0x38
 .text.prvResetNextTaskUnblockTime
                0x9d006ba0       0x38 build/pic32mx_sk/production/_ext/161854096/tasks.o

.text.vListInsertEnd
                0x9d006bd8       0x34
 .text.vListInsertEnd
                0x9d006bd8       0x34 build/pic32mx_sk/production/_ext/161854096/list.o
                0x9d006bd8                vListInsertEnd

.text.prvIsQueueEmpty
                0x9d006c0c       0x34
 .text.prvIsQueueEmpty
                0x9d006c0c       0x34 build/pic32mx_sk/production/_ext/161854096/queue.o

.text.system_reg_unlock
                0x9d006c40       0x30
 .text.system_reg_unlock
                0x9d006c40       0x30 build/pic32mx_sk/production/_ext/1360937237/io_setup.o
                0x9d006c40                system_reg_unlock

.rodata         0x9d006c70       0x2c
 .rodata        0x9d006c70       0x2c build/pic32mx_sk/production/_ext/1360937237/app2.o

.text.vPortFree
                0x9d006c9c       0x2c
 .text.vPortFree
                0x9d006c9c       0x2c build/pic32mx_sk/production/_ext/427228813/heap_1.o
                0x9d006c9c                vPortFree

.text.APP2_Initialize
                0x9d006cc8       0x28
 .text.APP2_Initialize
                0x9d006cc8       0x28 build/pic32mx_sk/production/_ext/1360937237/app2.o
                0x9d006cc8                APP2_Initialize

.text.vListInitialise
                0x9d006cf0       0x24
 .text.vListInitialise
                0x9d006cf0       0x24 build/pic32mx_sk/production/_ext/161854096/list.o
                0x9d006cf0                vListInitialise

.text._APP3_Tasks
                0x9d006d14       0x20
 .text._APP3_Tasks
                0x9d006d14       0x20 build/pic32mx_sk/production/_ext/351744058/system_tasks.o

.text.main      0x9d006d34       0x20
 .text.main     0x9d006d34       0x20 build/pic32mx_sk/production/_ext/1360937237/main.o
                0x9d006d34                main

.text.putchar   0x9d006d54       0x20
 .text.putchar  0x9d006d54       0x20 c:/program files (x86)/microchip/xc32/v2.30/bin/bin/../../lib/gcc/pic32mx/4.8.3/../../../../pic32mx/lib\libc.a(putchar.o)
                0x9d006d54                putchar

.text.APP1_Initialize
                0x9d006d74       0x1c
 .text.APP1_Initialize
                0x9d006d74       0x1c build/pic32mx_sk/production/_ext/1360937237/app1.o
                0x9d006d74                APP1_Initialize

.text._SYS_Tasks
                0x9d006d90       0x18
 .text._SYS_Tasks
                0x9d006d90       0x18 build/pic32mx_sk/production/_ext/351744058/system_tasks.o

.text._APP2_Tasks
                0x9d006da8       0x18
 .text._APP2_Tasks
                0x9d006da8       0x18 build/pic32mx_sk/production/_ext/351744058/system_tasks.o

.text._APP1_Tasks
                0x9d006dc0       0x18
 .text._APP1_Tasks
                0x9d006dc0       0x18 build/pic32mx_sk/production/_ext/351744058/system_tasks.o

.text._APP_Tasks
                0x9d006dd8       0x18
 .text._APP_Tasks
                0x9d006dd8       0x18 build/pic32mx_sk/production/_ext/351744058/system_tasks.o

.text           0x9d006df0       0x18
 .text          0x9d006df0       0x18 c:/program files (x86)/microchip/xc32/v2.30/bin/bin/../../lib/gcc/pic32mx/4.8.3/../../../../pic32mx/lib\libpic32.a(default-nmi-handler.o)
                0x9d006df0                _nmi_handler

.rodata         0x9d006e08       0x28
 .rodata        0x9d006e08       0x14 build/pic32mx_sk/production/_ext/351744058/system_init.o
 .rodata        0x9d006e1c       0x14 build/pic32mx_sk/production/_ext/1360937237/app1.o

.rodata         0x9d006e30       0x14
 .rodata        0x9d006e30       0x14 build/pic32mx_sk/production/_ext/1360937237/app3.o

.text.SYS_INT_Initialize
                0x9d006e44       0x14
 .text.SYS_INT_Initialize
                0x9d006e44       0x14 build/pic32mx_sk/production/_ext/711155467/sys_int_pic32.o
                0x9d006e44                SYS_INT_Initialize

.text.vTaskSuspendAll
                0x9d006e58       0x14
 .text.vTaskSuspendAll
                0x9d006e58       0x14 build/pic32mx_sk/production/_ext/161854096/tasks.o
                0x9d006e58                vTaskSuspendAll

.text.vTaskInternalSetTimeOutState
                0x9d006e6c       0x14
 .text.vTaskInternalSetTimeOutState
                0x9d006e6c       0x14 build/pic32mx_sk/production/_ext/161854096/tasks.o
                0x9d006e6c                vTaskInternalSetTimeOutState

.text.vTaskMissedYield
                0x9d006e80       0x10
 .text.vTaskMissedYield
                0x9d006e80       0x10 build/pic32mx_sk/production/_ext/161854096/tasks.o
                0x9d006e80                vTaskMissedYield

.text.vApplicationIdleHook
                0x9d006e90        0x8
 .text.vApplicationIdleHook
                0x9d006e90        0x8 build/pic32mx_sk/production/_ext/351744058/rtos_hooks.o
                0x9d006e90                vApplicationIdleHook

.text.vApplicationTickHook
                0x9d006e98        0x8
 .text.vApplicationTickHook
                0x9d006e98        0x8 build/pic32mx_sk/production/_ext/351744058/rtos_hooks.o
                0x9d006e98                vApplicationTickHook

.text.APP3_Initialize
                0x9d006ea0        0x8
 .text.APP3_Initialize
                0x9d006ea0        0x8 build/pic32mx_sk/production/_ext/1360937237/app3.o
                0x9d006ea0                APP3_Initialize

.text.vListInitialiseItem
                0x9d006ea8        0x8
 .text.vListInitialiseItem
                0x9d006ea8        0x8 build/pic32mx_sk/production/_ext/161854096/list.o
                0x9d006ea8                vListInitialiseItem

.text._on_reset
                0x9d006eb0        0x8
 .text._on_reset
                0x9d006eb0        0x8 c:/program files (x86)/microchip/xc32/v2.30/bin/bin/../../lib/gcc/pic32mx/4.8.3/../../../../pic32mx/lib\libpic32.a(default-on-reset.o)
                0x9d006eb0                _on_reset

.text._on_bootstrap
                0x9d006eb8        0x8
 .text._on_bootstrap
                0x9d006eb8        0x8 c:/program files (x86)/microchip/xc32/v2.30/bin/bin/../../lib/gcc/pic32mx/4.8.3/../../../../pic32mx/lib\libpic32.a(default-on-bootstrap.o)
                0x9d006eb8                _on_bootstrap

.rodata         0x9d006ec0       0x10
 .rodata        0x9d006ec0        0x8 c:/program files (x86)/microchip/xc32/v2.30/bin/bin/../../lib/gcc/pic32mx/4.8.3\libgcc.a(_floatundidf.o)
 .rodata        0x9d006ec8        0x8 c:/program files (x86)/microchip/xc32/v2.30/bin/bin/../../lib/gcc/pic32mx/4.8.3\libgcc.a(floatunsidf.o)

.rodata         0x9d003c54        0x4
 .rodata        0x9d003c54        0x4 ..\..\..\..\..\..\..\..\shiro019_accelerometer_spi.X\dist\default\production\shiro019_accelerometer_spi.X.a(accel_read_x.o)

.rodata         0x9d006ed0        0x4
 .rodata        0x9d006ed0        0x4 ..\..\..\..\..\..\..\..\shiro019_accelerometer_spi.X\dist\default\production\shiro019_accelerometer_spi.X.a(accel_read_y.o)
